
Lab5.elf:     file format elf32-littlearm

Sections:
Idx Name          Size      VMA       LMA       File off  Algn
  0 .isr_vector   000001e4  08000000  08000000  00001000  2**0
                  CONTENTS, ALLOC, LOAD, READONLY, DATA
  1 .text         0000527c  080001e8  080001e8  000011e8  2**3
                  CONTENTS, ALLOC, LOAD, READONLY, CODE
  2 .rodata       00002fd8  08005464  08005464  00006464  2**0
                  CONTENTS, ALLOC, LOAD, READONLY, DATA
  3 .ARM.extab    00000000  0800843c  0800843c  0000a010  2**0
                  CONTENTS
  4 .ARM          00000000  0800843c  0800843c  0000a010  2**0
                  CONTENTS
  5 .preinit_array 00000000  0800843c  0800843c  0000a010  2**0
                  CONTENTS, ALLOC, LOAD, DATA
  6 .init_array   00000004  0800843c  0800843c  0000943c  2**2
                  CONTENTS, ALLOC, LOAD, READONLY, DATA
  7 .fini_array   00000004  08008440  08008440  00009440  2**2
                  CONTENTS, ALLOC, LOAD, READONLY, DATA
  8 .data         00000010  20000000  08008444  0000a000  2**2
                  CONTENTS, ALLOC, LOAD, DATA
  9 .bss          00000030  20000010  08008454  0000a010  2**2
                  ALLOC
 10 ._user_heap_stack 00000600  20000040  08008454  0000a040  2**0
                  ALLOC
 11 .ARM.attributes 00000029  00000000  00000000  0000a010  2**0
                  CONTENTS, READONLY
 12 .comment      00000043  00000000  00000000  0000a039  2**0
                  CONTENTS, READONLY
 13 .debug_frame  0000014c  00000000  00000000  0000a07c  2**2
                  CONTENTS, READONLY, DEBUGGING, OCTETS

Disassembly of section .text:

080001e8 <__do_global_dtors_aux>:
 80001e8:	b510      	push	{r4, lr}
 80001ea:	4c05      	ldr	r4, [pc, #20]	@ (8000200 <__do_global_dtors_aux+0x18>)
 80001ec:	7823      	ldrb	r3, [r4, #0]
 80001ee:	b933      	cbnz	r3, 80001fe <__do_global_dtors_aux+0x16>
 80001f0:	4b04      	ldr	r3, [pc, #16]	@ (8000204 <__do_global_dtors_aux+0x1c>)
 80001f2:	b113      	cbz	r3, 80001fa <__do_global_dtors_aux+0x12>
 80001f4:	4804      	ldr	r0, [pc, #16]	@ (8000208 <__do_global_dtors_aux+0x20>)
 80001f6:	f3af 8000 	nop.w
 80001fa:	2301      	movs	r3, #1
 80001fc:	7023      	strb	r3, [r4, #0]
 80001fe:	bd10      	pop	{r4, pc}
 8000200:	20000010 	.word	0x20000010
 8000204:	00000000 	.word	0x00000000
 8000208:	0800544c 	.word	0x0800544c

0800020c <frame_dummy>:
 800020c:	b508      	push	{r3, lr}
 800020e:	4b03      	ldr	r3, [pc, #12]	@ (800021c <frame_dummy+0x10>)
 8000210:	b11b      	cbz	r3, 800021a <frame_dummy+0xe>
 8000212:	4903      	ldr	r1, [pc, #12]	@ (8000220 <frame_dummy+0x14>)
 8000214:	4803      	ldr	r0, [pc, #12]	@ (8000224 <frame_dummy+0x18>)
 8000216:	f3af 8000 	nop.w
 800021a:	bd08      	pop	{r3, pc}
 800021c:	00000000 	.word	0x00000000
 8000220:	20000014 	.word	0x20000014
 8000224:	0800544c 	.word	0x0800544c

08000228 <__aeabi_dmul>:
 8000228:	b570      	push	{r4, r5, r6, lr}
 800022a:	f04f 0cff 	mov.w	ip, #255	@ 0xff
 800022e:	f44c 6ce0 	orr.w	ip, ip, #1792	@ 0x700
 8000232:	ea1c 5411 	ands.w	r4, ip, r1, lsr #20
 8000236:	bf1d      	ittte	ne
 8000238:	ea1c 5513 	andsne.w	r5, ip, r3, lsr #20
 800023c:	ea94 0f0c 	teqne	r4, ip
 8000240:	ea95 0f0c 	teqne	r5, ip
 8000244:	f000 f8de 	bleq	8000404 <__aeabi_dmul+0x1dc>
 8000248:	442c      	add	r4, r5
 800024a:	ea81 0603 	eor.w	r6, r1, r3
 800024e:	ea21 514c 	bic.w	r1, r1, ip, lsl #21
 8000252:	ea23 534c 	bic.w	r3, r3, ip, lsl #21
 8000256:	ea50 3501 	orrs.w	r5, r0, r1, lsl #12
 800025a:	bf18      	it	ne
 800025c:	ea52 3503 	orrsne.w	r5, r2, r3, lsl #12
 8000260:	f441 1180 	orr.w	r1, r1, #1048576	@ 0x100000
 8000264:	f443 1380 	orr.w	r3, r3, #1048576	@ 0x100000
 8000268:	d038      	beq.n	80002dc <__aeabi_dmul+0xb4>
 800026a:	fba0 ce02 	umull	ip, lr, r0, r2
 800026e:	f04f 0500 	mov.w	r5, #0
 8000272:	fbe1 e502 	umlal	lr, r5, r1, r2
 8000276:	f006 4200 	and.w	r2, r6, #2147483648	@ 0x80000000
 800027a:	fbe0 e503 	umlal	lr, r5, r0, r3
 800027e:	f04f 0600 	mov.w	r6, #0
 8000282:	fbe1 5603 	umlal	r5, r6, r1, r3
 8000286:	f09c 0f00 	teq	ip, #0
 800028a:	bf18      	it	ne
 800028c:	f04e 0e01 	orrne.w	lr, lr, #1
 8000290:	f1a4 04ff 	sub.w	r4, r4, #255	@ 0xff
 8000294:	f5b6 7f00 	cmp.w	r6, #512	@ 0x200
 8000298:	f564 7440 	sbc.w	r4, r4, #768	@ 0x300
 800029c:	d204      	bcs.n	80002a8 <__aeabi_dmul+0x80>
 800029e:	ea5f 0e4e 	movs.w	lr, lr, lsl #1
 80002a2:	416d      	adcs	r5, r5
 80002a4:	eb46 0606 	adc.w	r6, r6, r6
 80002a8:	ea42 21c6 	orr.w	r1, r2, r6, lsl #11
 80002ac:	ea41 5155 	orr.w	r1, r1, r5, lsr #21
 80002b0:	ea4f 20c5 	mov.w	r0, r5, lsl #11
 80002b4:	ea40 505e 	orr.w	r0, r0, lr, lsr #21
 80002b8:	ea4f 2ece 	mov.w	lr, lr, lsl #11
 80002bc:	f1b4 0cfd 	subs.w	ip, r4, #253	@ 0xfd
 80002c0:	bf88      	it	hi
 80002c2:	f5bc 6fe0 	cmphi.w	ip, #1792	@ 0x700
 80002c6:	d81e      	bhi.n	8000306 <__aeabi_dmul+0xde>
 80002c8:	f1be 4f00 	cmp.w	lr, #2147483648	@ 0x80000000
 80002cc:	bf08      	it	eq
 80002ce:	ea5f 0e50 	movseq.w	lr, r0, lsr #1
 80002d2:	f150 0000 	adcs.w	r0, r0, #0
 80002d6:	eb41 5104 	adc.w	r1, r1, r4, lsl #20
 80002da:	bd70      	pop	{r4, r5, r6, pc}
 80002dc:	f006 4600 	and.w	r6, r6, #2147483648	@ 0x80000000
 80002e0:	ea46 0101 	orr.w	r1, r6, r1
 80002e4:	ea40 0002 	orr.w	r0, r0, r2
 80002e8:	ea81 0103 	eor.w	r1, r1, r3
 80002ec:	ebb4 045c 	subs.w	r4, r4, ip, lsr #1
 80002f0:	bfc2      	ittt	gt
 80002f2:	ebd4 050c 	rsbsgt	r5, r4, ip
 80002f6:	ea41 5104 	orrgt.w	r1, r1, r4, lsl #20
 80002fa:	bd70      	popgt	{r4, r5, r6, pc}
 80002fc:	f441 1180 	orr.w	r1, r1, #1048576	@ 0x100000
 8000300:	f04f 0e00 	mov.w	lr, #0
 8000304:	3c01      	subs	r4, #1
 8000306:	f300 80ab 	bgt.w	8000460 <__aeabi_dmul+0x238>
 800030a:	f114 0f36 	cmn.w	r4, #54	@ 0x36
 800030e:	bfde      	ittt	le
 8000310:	2000      	movle	r0, #0
 8000312:	f001 4100 	andle.w	r1, r1, #2147483648	@ 0x80000000
 8000316:	bd70      	pople	{r4, r5, r6, pc}
 8000318:	f1c4 0400 	rsb	r4, r4, #0
 800031c:	3c20      	subs	r4, #32
 800031e:	da35      	bge.n	800038c <__aeabi_dmul+0x164>
 8000320:	340c      	adds	r4, #12
 8000322:	dc1b      	bgt.n	800035c <__aeabi_dmul+0x134>
 8000324:	f104 0414 	add.w	r4, r4, #20
 8000328:	f1c4 0520 	rsb	r5, r4, #32
 800032c:	fa00 f305 	lsl.w	r3, r0, r5
 8000330:	fa20 f004 	lsr.w	r0, r0, r4
 8000334:	fa01 f205 	lsl.w	r2, r1, r5
 8000338:	ea40 0002 	orr.w	r0, r0, r2
 800033c:	f001 4200 	and.w	r2, r1, #2147483648	@ 0x80000000
 8000340:	f021 4100 	bic.w	r1, r1, #2147483648	@ 0x80000000
 8000344:	eb10 70d3 	adds.w	r0, r0, r3, lsr #31
 8000348:	fa21 f604 	lsr.w	r6, r1, r4
 800034c:	eb42 0106 	adc.w	r1, r2, r6
 8000350:	ea5e 0e43 	orrs.w	lr, lr, r3, lsl #1
 8000354:	bf08      	it	eq
 8000356:	ea20 70d3 	biceq.w	r0, r0, r3, lsr #31
 800035a:	bd70      	pop	{r4, r5, r6, pc}
 800035c:	f1c4 040c 	rsb	r4, r4, #12
 8000360:	f1c4 0520 	rsb	r5, r4, #32
 8000364:	fa00 f304 	lsl.w	r3, r0, r4
 8000368:	fa20 f005 	lsr.w	r0, r0, r5
 800036c:	fa01 f204 	lsl.w	r2, r1, r4
 8000370:	ea40 0002 	orr.w	r0, r0, r2
 8000374:	f001 4100 	and.w	r1, r1, #2147483648	@ 0x80000000
 8000378:	eb10 70d3 	adds.w	r0, r0, r3, lsr #31
 800037c:	f141 0100 	adc.w	r1, r1, #0
 8000380:	ea5e 0e43 	orrs.w	lr, lr, r3, lsl #1
 8000384:	bf08      	it	eq
 8000386:	ea20 70d3 	biceq.w	r0, r0, r3, lsr #31
 800038a:	bd70      	pop	{r4, r5, r6, pc}
 800038c:	f1c4 0520 	rsb	r5, r4, #32
 8000390:	fa00 f205 	lsl.w	r2, r0, r5
 8000394:	ea4e 0e02 	orr.w	lr, lr, r2
 8000398:	fa20 f304 	lsr.w	r3, r0, r4
 800039c:	fa01 f205 	lsl.w	r2, r1, r5
 80003a0:	ea43 0302 	orr.w	r3, r3, r2
 80003a4:	fa21 f004 	lsr.w	r0, r1, r4
 80003a8:	f001 4100 	and.w	r1, r1, #2147483648	@ 0x80000000
 80003ac:	fa21 f204 	lsr.w	r2, r1, r4
 80003b0:	ea20 0002 	bic.w	r0, r0, r2
 80003b4:	eb00 70d3 	add.w	r0, r0, r3, lsr #31
 80003b8:	ea5e 0e43 	orrs.w	lr, lr, r3, lsl #1
 80003bc:	bf08      	it	eq
 80003be:	ea20 70d3 	biceq.w	r0, r0, r3, lsr #31
 80003c2:	bd70      	pop	{r4, r5, r6, pc}
 80003c4:	f094 0f00 	teq	r4, #0
 80003c8:	d10f      	bne.n	80003ea <__aeabi_dmul+0x1c2>
 80003ca:	f001 4600 	and.w	r6, r1, #2147483648	@ 0x80000000
 80003ce:	0040      	lsls	r0, r0, #1
 80003d0:	eb41 0101 	adc.w	r1, r1, r1
 80003d4:	f411 1f80 	tst.w	r1, #1048576	@ 0x100000
 80003d8:	bf08      	it	eq
 80003da:	3c01      	subeq	r4, #1
 80003dc:	d0f7      	beq.n	80003ce <__aeabi_dmul+0x1a6>
 80003de:	ea41 0106 	orr.w	r1, r1, r6
 80003e2:	f095 0f00 	teq	r5, #0
 80003e6:	bf18      	it	ne
 80003e8:	4770      	bxne	lr
 80003ea:	f003 4600 	and.w	r6, r3, #2147483648	@ 0x80000000
 80003ee:	0052      	lsls	r2, r2, #1
 80003f0:	eb43 0303 	adc.w	r3, r3, r3
 80003f4:	f413 1f80 	tst.w	r3, #1048576	@ 0x100000
 80003f8:	bf08      	it	eq
 80003fa:	3d01      	subeq	r5, #1
 80003fc:	d0f7      	beq.n	80003ee <__aeabi_dmul+0x1c6>
 80003fe:	ea43 0306 	orr.w	r3, r3, r6
 8000402:	4770      	bx	lr
 8000404:	ea94 0f0c 	teq	r4, ip
 8000408:	ea0c 5513 	and.w	r5, ip, r3, lsr #20
 800040c:	bf18      	it	ne
 800040e:	ea95 0f0c 	teqne	r5, ip
 8000412:	d00c      	beq.n	800042e <__aeabi_dmul+0x206>
 8000414:	ea50 0641 	orrs.w	r6, r0, r1, lsl #1
 8000418:	bf18      	it	ne
 800041a:	ea52 0643 	orrsne.w	r6, r2, r3, lsl #1
 800041e:	d1d1      	bne.n	80003c4 <__aeabi_dmul+0x19c>
 8000420:	ea81 0103 	eor.w	r1, r1, r3
 8000424:	f001 4100 	and.w	r1, r1, #2147483648	@ 0x80000000
 8000428:	f04f 0000 	mov.w	r0, #0
 800042c:	bd70      	pop	{r4, r5, r6, pc}
 800042e:	ea50 0641 	orrs.w	r6, r0, r1, lsl #1
 8000432:	bf06      	itte	eq
 8000434:	4610      	moveq	r0, r2
 8000436:	4619      	moveq	r1, r3
 8000438:	ea52 0643 	orrsne.w	r6, r2, r3, lsl #1
 800043c:	d019      	beq.n	8000472 <__aeabi_dmul+0x24a>
 800043e:	ea94 0f0c 	teq	r4, ip
 8000442:	d102      	bne.n	800044a <__aeabi_dmul+0x222>
 8000444:	ea50 3601 	orrs.w	r6, r0, r1, lsl #12
 8000448:	d113      	bne.n	8000472 <__aeabi_dmul+0x24a>
 800044a:	ea95 0f0c 	teq	r5, ip
 800044e:	d105      	bne.n	800045c <__aeabi_dmul+0x234>
 8000450:	ea52 3603 	orrs.w	r6, r2, r3, lsl #12
 8000454:	bf1c      	itt	ne
 8000456:	4610      	movne	r0, r2
 8000458:	4619      	movne	r1, r3
 800045a:	d10a      	bne.n	8000472 <__aeabi_dmul+0x24a>
 800045c:	ea81 0103 	eor.w	r1, r1, r3
 8000460:	f001 4100 	and.w	r1, r1, #2147483648	@ 0x80000000
 8000464:	f041 41fe 	orr.w	r1, r1, #2130706432	@ 0x7f000000
 8000468:	f441 0170 	orr.w	r1, r1, #15728640	@ 0xf00000
 800046c:	f04f 0000 	mov.w	r0, #0
 8000470:	bd70      	pop	{r4, r5, r6, pc}
 8000472:	f041 41fe 	orr.w	r1, r1, #2130706432	@ 0x7f000000
 8000476:	f441 0178 	orr.w	r1, r1, #16252928	@ 0xf80000
 800047a:	bd70      	pop	{r4, r5, r6, pc}

0800047c <__aeabi_drsub>:
 800047c:	f081 4100 	eor.w	r1, r1, #2147483648	@ 0x80000000
 8000480:	e002      	b.n	8000488 <__adddf3>
 8000482:	bf00      	nop

08000484 <__aeabi_dsub>:
 8000484:	f083 4300 	eor.w	r3, r3, #2147483648	@ 0x80000000

08000488 <__adddf3>:
 8000488:	b530      	push	{r4, r5, lr}
 800048a:	ea4f 0441 	mov.w	r4, r1, lsl #1
 800048e:	ea4f 0543 	mov.w	r5, r3, lsl #1
 8000492:	ea94 0f05 	teq	r4, r5
 8000496:	bf08      	it	eq
 8000498:	ea90 0f02 	teqeq	r0, r2
 800049c:	bf1f      	itttt	ne
 800049e:	ea54 0c00 	orrsne.w	ip, r4, r0
 80004a2:	ea55 0c02 	orrsne.w	ip, r5, r2
 80004a6:	ea7f 5c64 	mvnsne.w	ip, r4, asr #21
 80004aa:	ea7f 5c65 	mvnsne.w	ip, r5, asr #21
 80004ae:	f000 80e2 	beq.w	8000676 <__adddf3+0x1ee>
 80004b2:	ea4f 5454 	mov.w	r4, r4, lsr #21
 80004b6:	ebd4 5555 	rsbs	r5, r4, r5, lsr #21
 80004ba:	bfb8      	it	lt
 80004bc:	426d      	neglt	r5, r5
 80004be:	dd0c      	ble.n	80004da <__adddf3+0x52>
 80004c0:	442c      	add	r4, r5
 80004c2:	ea80 0202 	eor.w	r2, r0, r2
 80004c6:	ea81 0303 	eor.w	r3, r1, r3
 80004ca:	ea82 0000 	eor.w	r0, r2, r0
 80004ce:	ea83 0101 	eor.w	r1, r3, r1
 80004d2:	ea80 0202 	eor.w	r2, r0, r2
 80004d6:	ea81 0303 	eor.w	r3, r1, r3
 80004da:	2d36      	cmp	r5, #54	@ 0x36
 80004dc:	bf88      	it	hi
 80004de:	bd30      	pophi	{r4, r5, pc}
 80004e0:	f011 4f00 	tst.w	r1, #2147483648	@ 0x80000000
 80004e4:	ea4f 3101 	mov.w	r1, r1, lsl #12
 80004e8:	f44f 1c80 	mov.w	ip, #1048576	@ 0x100000
 80004ec:	ea4c 3111 	orr.w	r1, ip, r1, lsr #12
 80004f0:	d002      	beq.n	80004f8 <__adddf3+0x70>
 80004f2:	4240      	negs	r0, r0
 80004f4:	eb61 0141 	sbc.w	r1, r1, r1, lsl #1
 80004f8:	f013 4f00 	tst.w	r3, #2147483648	@ 0x80000000
 80004fc:	ea4f 3303 	mov.w	r3, r3, lsl #12
 8000500:	ea4c 3313 	orr.w	r3, ip, r3, lsr #12
 8000504:	d002      	beq.n	800050c <__adddf3+0x84>
 8000506:	4252      	negs	r2, r2
 8000508:	eb63 0343 	sbc.w	r3, r3, r3, lsl #1
 800050c:	ea94 0f05 	teq	r4, r5
 8000510:	f000 80a7 	beq.w	8000662 <__adddf3+0x1da>
 8000514:	f1a4 0401 	sub.w	r4, r4, #1
 8000518:	f1d5 0e20 	rsbs	lr, r5, #32
 800051c:	db0d      	blt.n	800053a <__adddf3+0xb2>
 800051e:	fa02 fc0e 	lsl.w	ip, r2, lr
 8000522:	fa22 f205 	lsr.w	r2, r2, r5
 8000526:	1880      	adds	r0, r0, r2
 8000528:	f141 0100 	adc.w	r1, r1, #0
 800052c:	fa03 f20e 	lsl.w	r2, r3, lr
 8000530:	1880      	adds	r0, r0, r2
 8000532:	fa43 f305 	asr.w	r3, r3, r5
 8000536:	4159      	adcs	r1, r3
 8000538:	e00e      	b.n	8000558 <__adddf3+0xd0>
 800053a:	f1a5 0520 	sub.w	r5, r5, #32
 800053e:	f10e 0e20 	add.w	lr, lr, #32
 8000542:	2a01      	cmp	r2, #1
 8000544:	fa03 fc0e 	lsl.w	ip, r3, lr
 8000548:	bf28      	it	cs
 800054a:	f04c 0c02 	orrcs.w	ip, ip, #2
 800054e:	fa43 f305 	asr.w	r3, r3, r5
 8000552:	18c0      	adds	r0, r0, r3
 8000554:	eb51 71e3 	adcs.w	r1, r1, r3, asr #31
 8000558:	f001 4500 	and.w	r5, r1, #2147483648	@ 0x80000000
 800055c:	d507      	bpl.n	800056e <__adddf3+0xe6>
 800055e:	f04f 0e00 	mov.w	lr, #0
 8000562:	f1dc 0c00 	rsbs	ip, ip, #0
 8000566:	eb7e 0000 	sbcs.w	r0, lr, r0
 800056a:	eb6e 0101 	sbc.w	r1, lr, r1
 800056e:	f5b1 1f80 	cmp.w	r1, #1048576	@ 0x100000
 8000572:	d31b      	bcc.n	80005ac <__adddf3+0x124>
 8000574:	f5b1 1f00 	cmp.w	r1, #2097152	@ 0x200000
 8000578:	d30c      	bcc.n	8000594 <__adddf3+0x10c>
 800057a:	0849      	lsrs	r1, r1, #1
 800057c:	ea5f 0030 	movs.w	r0, r0, rrx
 8000580:	ea4f 0c3c 	mov.w	ip, ip, rrx
 8000584:	f104 0401 	add.w	r4, r4, #1
 8000588:	ea4f 5244 	mov.w	r2, r4, lsl #21
 800058c:	f512 0f80 	cmn.w	r2, #4194304	@ 0x400000
 8000590:	f080 809a 	bcs.w	80006c8 <__adddf3+0x240>
 8000594:	f1bc 4f00 	cmp.w	ip, #2147483648	@ 0x80000000
 8000598:	bf08      	it	eq
 800059a:	ea5f 0c50 	movseq.w	ip, r0, lsr #1
 800059e:	f150 0000 	adcs.w	r0, r0, #0
 80005a2:	eb41 5104 	adc.w	r1, r1, r4, lsl #20
 80005a6:	ea41 0105 	orr.w	r1, r1, r5
 80005aa:	bd30      	pop	{r4, r5, pc}
 80005ac:	ea5f 0c4c 	movs.w	ip, ip, lsl #1
 80005b0:	4140      	adcs	r0, r0
 80005b2:	eb41 0101 	adc.w	r1, r1, r1
 80005b6:	3c01      	subs	r4, #1
 80005b8:	bf28      	it	cs
 80005ba:	f5b1 1f80 	cmpcs.w	r1, #1048576	@ 0x100000
 80005be:	d2e9      	bcs.n	8000594 <__adddf3+0x10c>
 80005c0:	f091 0f00 	teq	r1, #0
 80005c4:	bf04      	itt	eq
 80005c6:	4601      	moveq	r1, r0
 80005c8:	2000      	moveq	r0, #0
 80005ca:	fab1 f381 	clz	r3, r1
 80005ce:	bf08      	it	eq
 80005d0:	3320      	addeq	r3, #32
 80005d2:	f1a3 030b 	sub.w	r3, r3, #11
 80005d6:	f1b3 0220 	subs.w	r2, r3, #32
 80005da:	da0c      	bge.n	80005f6 <__adddf3+0x16e>
 80005dc:	320c      	adds	r2, #12
 80005de:	dd08      	ble.n	80005f2 <__adddf3+0x16a>
 80005e0:	f102 0c14 	add.w	ip, r2, #20
 80005e4:	f1c2 020c 	rsb	r2, r2, #12
 80005e8:	fa01 f00c 	lsl.w	r0, r1, ip
 80005ec:	fa21 f102 	lsr.w	r1, r1, r2
 80005f0:	e00c      	b.n	800060c <__adddf3+0x184>
 80005f2:	f102 0214 	add.w	r2, r2, #20
 80005f6:	bfd8      	it	le
 80005f8:	f1c2 0c20 	rsble	ip, r2, #32
 80005fc:	fa01 f102 	lsl.w	r1, r1, r2
 8000600:	fa20 fc0c 	lsr.w	ip, r0, ip
 8000604:	bfdc      	itt	le
 8000606:	ea41 010c 	orrle.w	r1, r1, ip
 800060a:	4090      	lslle	r0, r2
 800060c:	1ae4      	subs	r4, r4, r3
 800060e:	bfa2      	ittt	ge
 8000610:	eb01 5104 	addge.w	r1, r1, r4, lsl #20
 8000614:	4329      	orrge	r1, r5
 8000616:	bd30      	popge	{r4, r5, pc}
 8000618:	ea6f 0404 	mvn.w	r4, r4
 800061c:	3c1f      	subs	r4, #31
 800061e:	da1c      	bge.n	800065a <__adddf3+0x1d2>
 8000620:	340c      	adds	r4, #12
 8000622:	dc0e      	bgt.n	8000642 <__adddf3+0x1ba>
 8000624:	f104 0414 	add.w	r4, r4, #20
 8000628:	f1c4 0220 	rsb	r2, r4, #32
 800062c:	fa20 f004 	lsr.w	r0, r0, r4
 8000630:	fa01 f302 	lsl.w	r3, r1, r2
 8000634:	ea40 0003 	orr.w	r0, r0, r3
 8000638:	fa21 f304 	lsr.w	r3, r1, r4
 800063c:	ea45 0103 	orr.w	r1, r5, r3
 8000640:	bd30      	pop	{r4, r5, pc}
 8000642:	f1c4 040c 	rsb	r4, r4, #12
 8000646:	f1c4 0220 	rsb	r2, r4, #32
 800064a:	fa20 f002 	lsr.w	r0, r0, r2
 800064e:	fa01 f304 	lsl.w	r3, r1, r4
 8000652:	ea40 0003 	orr.w	r0, r0, r3
 8000656:	4629      	mov	r1, r5
 8000658:	bd30      	pop	{r4, r5, pc}
 800065a:	fa21 f004 	lsr.w	r0, r1, r4
 800065e:	4629      	mov	r1, r5
 8000660:	bd30      	pop	{r4, r5, pc}
 8000662:	f094 0f00 	teq	r4, #0
 8000666:	f483 1380 	eor.w	r3, r3, #1048576	@ 0x100000
 800066a:	bf06      	itte	eq
 800066c:	f481 1180 	eoreq.w	r1, r1, #1048576	@ 0x100000
 8000670:	3401      	addeq	r4, #1
 8000672:	3d01      	subne	r5, #1
 8000674:	e74e      	b.n	8000514 <__adddf3+0x8c>
 8000676:	ea7f 5c64 	mvns.w	ip, r4, asr #21
 800067a:	bf18      	it	ne
 800067c:	ea7f 5c65 	mvnsne.w	ip, r5, asr #21
 8000680:	d029      	beq.n	80006d6 <__adddf3+0x24e>
 8000682:	ea94 0f05 	teq	r4, r5
 8000686:	bf08      	it	eq
 8000688:	ea90 0f02 	teqeq	r0, r2
 800068c:	d005      	beq.n	800069a <__adddf3+0x212>
 800068e:	ea54 0c00 	orrs.w	ip, r4, r0
 8000692:	bf04      	itt	eq
 8000694:	4619      	moveq	r1, r3
 8000696:	4610      	moveq	r0, r2
 8000698:	bd30      	pop	{r4, r5, pc}
 800069a:	ea91 0f03 	teq	r1, r3
 800069e:	bf1e      	ittt	ne
 80006a0:	2100      	movne	r1, #0
 80006a2:	2000      	movne	r0, #0
 80006a4:	bd30      	popne	{r4, r5, pc}
 80006a6:	ea5f 5c54 	movs.w	ip, r4, lsr #21
 80006aa:	d105      	bne.n	80006b8 <__adddf3+0x230>
 80006ac:	0040      	lsls	r0, r0, #1
 80006ae:	4149      	adcs	r1, r1
 80006b0:	bf28      	it	cs
 80006b2:	f041 4100 	orrcs.w	r1, r1, #2147483648	@ 0x80000000
 80006b6:	bd30      	pop	{r4, r5, pc}
 80006b8:	f514 0480 	adds.w	r4, r4, #4194304	@ 0x400000
 80006bc:	bf3c      	itt	cc
 80006be:	f501 1180 	addcc.w	r1, r1, #1048576	@ 0x100000
 80006c2:	bd30      	popcc	{r4, r5, pc}
 80006c4:	f001 4500 	and.w	r5, r1, #2147483648	@ 0x80000000
 80006c8:	f045 41fe 	orr.w	r1, r5, #2130706432	@ 0x7f000000
 80006cc:	f441 0170 	orr.w	r1, r1, #15728640	@ 0xf00000
 80006d0:	f04f 0000 	mov.w	r0, #0
 80006d4:	bd30      	pop	{r4, r5, pc}
 80006d6:	ea7f 5c64 	mvns.w	ip, r4, asr #21
 80006da:	bf1a      	itte	ne
 80006dc:	4619      	movne	r1, r3
 80006de:	4610      	movne	r0, r2
 80006e0:	ea7f 5c65 	mvnseq.w	ip, r5, asr #21
 80006e4:	bf1c      	itt	ne
 80006e6:	460b      	movne	r3, r1
 80006e8:	4602      	movne	r2, r0
 80006ea:	ea50 3401 	orrs.w	r4, r0, r1, lsl #12
 80006ee:	bf06      	itte	eq
 80006f0:	ea52 3503 	orrseq.w	r5, r2, r3, lsl #12
 80006f4:	ea91 0f03 	teqeq	r1, r3
 80006f8:	f441 2100 	orrne.w	r1, r1, #524288	@ 0x80000
 80006fc:	bd30      	pop	{r4, r5, pc}
 80006fe:	bf00      	nop

08000700 <__aeabi_ui2d>:
 8000700:	f090 0f00 	teq	r0, #0
 8000704:	bf04      	itt	eq
 8000706:	2100      	moveq	r1, #0
 8000708:	4770      	bxeq	lr
 800070a:	b530      	push	{r4, r5, lr}
 800070c:	f44f 6480 	mov.w	r4, #1024	@ 0x400
 8000710:	f104 0432 	add.w	r4, r4, #50	@ 0x32
 8000714:	f04f 0500 	mov.w	r5, #0
 8000718:	f04f 0100 	mov.w	r1, #0
 800071c:	e750      	b.n	80005c0 <__adddf3+0x138>
 800071e:	bf00      	nop

08000720 <__aeabi_i2d>:
 8000720:	f090 0f00 	teq	r0, #0
 8000724:	bf04      	itt	eq
 8000726:	2100      	moveq	r1, #0
 8000728:	4770      	bxeq	lr
 800072a:	b530      	push	{r4, r5, lr}
 800072c:	f44f 6480 	mov.w	r4, #1024	@ 0x400
 8000730:	f104 0432 	add.w	r4, r4, #50	@ 0x32
 8000734:	f010 4500 	ands.w	r5, r0, #2147483648	@ 0x80000000
 8000738:	bf48      	it	mi
 800073a:	4240      	negmi	r0, r0
 800073c:	f04f 0100 	mov.w	r1, #0
 8000740:	e73e      	b.n	80005c0 <__adddf3+0x138>
 8000742:	bf00      	nop

08000744 <__aeabi_f2d>:
 8000744:	0042      	lsls	r2, r0, #1
 8000746:	ea4f 01e2 	mov.w	r1, r2, asr #3
 800074a:	ea4f 0131 	mov.w	r1, r1, rrx
 800074e:	ea4f 7002 	mov.w	r0, r2, lsl #28
 8000752:	bf1f      	itttt	ne
 8000754:	f012 437f 	andsne.w	r3, r2, #4278190080	@ 0xff000000
 8000758:	f093 4f7f 	teqne	r3, #4278190080	@ 0xff000000
 800075c:	f081 5160 	eorne.w	r1, r1, #939524096	@ 0x38000000
 8000760:	4770      	bxne	lr
 8000762:	f032 427f 	bics.w	r2, r2, #4278190080	@ 0xff000000
 8000766:	bf08      	it	eq
 8000768:	4770      	bxeq	lr
 800076a:	f093 4f7f 	teq	r3, #4278190080	@ 0xff000000
 800076e:	bf04      	itt	eq
 8000770:	f441 2100 	orreq.w	r1, r1, #524288	@ 0x80000
 8000774:	4770      	bxeq	lr
 8000776:	b530      	push	{r4, r5, lr}
 8000778:	f44f 7460 	mov.w	r4, #896	@ 0x380
 800077c:	f001 4500 	and.w	r5, r1, #2147483648	@ 0x80000000
 8000780:	f021 4100 	bic.w	r1, r1, #2147483648	@ 0x80000000
 8000784:	e71c      	b.n	80005c0 <__adddf3+0x138>
 8000786:	bf00      	nop

08000788 <__aeabi_ul2d>:
 8000788:	ea50 0201 	orrs.w	r2, r0, r1
 800078c:	bf08      	it	eq
 800078e:	4770      	bxeq	lr
 8000790:	b530      	push	{r4, r5, lr}
 8000792:	f04f 0500 	mov.w	r5, #0
 8000796:	e00a      	b.n	80007ae <__aeabi_l2d+0x16>

08000798 <__aeabi_l2d>:
 8000798:	ea50 0201 	orrs.w	r2, r0, r1
 800079c:	bf08      	it	eq
 800079e:	4770      	bxeq	lr
 80007a0:	b530      	push	{r4, r5, lr}
 80007a2:	f011 4500 	ands.w	r5, r1, #2147483648	@ 0x80000000
 80007a6:	d502      	bpl.n	80007ae <__aeabi_l2d+0x16>
 80007a8:	4240      	negs	r0, r0
 80007aa:	eb61 0141 	sbc.w	r1, r1, r1, lsl #1
 80007ae:	f44f 6480 	mov.w	r4, #1024	@ 0x400
 80007b2:	f104 0432 	add.w	r4, r4, #50	@ 0x32
 80007b6:	ea5f 5c91 	movs.w	ip, r1, lsr #22
 80007ba:	f43f aed8 	beq.w	800056e <__adddf3+0xe6>
 80007be:	f04f 0203 	mov.w	r2, #3
 80007c2:	ea5f 0cdc 	movs.w	ip, ip, lsr #3
 80007c6:	bf18      	it	ne
 80007c8:	3203      	addne	r2, #3
 80007ca:	ea5f 0cdc 	movs.w	ip, ip, lsr #3
 80007ce:	bf18      	it	ne
 80007d0:	3203      	addne	r2, #3
 80007d2:	eb02 02dc 	add.w	r2, r2, ip, lsr #3
 80007d6:	f1c2 0320 	rsb	r3, r2, #32
 80007da:	fa00 fc03 	lsl.w	ip, r0, r3
 80007de:	fa20 f002 	lsr.w	r0, r0, r2
 80007e2:	fa01 fe03 	lsl.w	lr, r1, r3
 80007e6:	ea40 000e 	orr.w	r0, r0, lr
 80007ea:	fa21 f102 	lsr.w	r1, r1, r2
 80007ee:	4414      	add	r4, r2
 80007f0:	e6bd      	b.n	800056e <__adddf3+0xe6>
 80007f2:	bf00      	nop

080007f4 <__aeabi_d2uiz>:
 80007f4:	004a      	lsls	r2, r1, #1
 80007f6:	d211      	bcs.n	800081c <__aeabi_d2uiz+0x28>
 80007f8:	f512 1200 	adds.w	r2, r2, #2097152	@ 0x200000
 80007fc:	d211      	bcs.n	8000822 <__aeabi_d2uiz+0x2e>
 80007fe:	d50d      	bpl.n	800081c <__aeabi_d2uiz+0x28>
 8000800:	f46f 7378 	mvn.w	r3, #992	@ 0x3e0
 8000804:	ebb3 5262 	subs.w	r2, r3, r2, asr #21
 8000808:	d40e      	bmi.n	8000828 <__aeabi_d2uiz+0x34>
 800080a:	ea4f 23c1 	mov.w	r3, r1, lsl #11
 800080e:	f043 4300 	orr.w	r3, r3, #2147483648	@ 0x80000000
 8000812:	ea43 5350 	orr.w	r3, r3, r0, lsr #21
 8000816:	fa23 f002 	lsr.w	r0, r3, r2
 800081a:	4770      	bx	lr
 800081c:	f04f 0000 	mov.w	r0, #0
 8000820:	4770      	bx	lr
 8000822:	ea50 3001 	orrs.w	r0, r0, r1, lsl #12
 8000826:	d102      	bne.n	800082e <__aeabi_d2uiz+0x3a>
 8000828:	f04f 30ff 	mov.w	r0, #4294967295
 800082c:	4770      	bx	lr
 800082e:	f04f 0000 	mov.w	r0, #0
 8000832:	4770      	bx	lr

08000834 <MX_GPIO_Init>:
 8000834:	2210      	movs	r2, #16
 8000836:	e92d 43f0 	stmdb	sp!, {r4, r5, r6, r7, r8, r9, lr}
 800083a:	2401      	movs	r4, #1
 800083c:	2502      	movs	r5, #2
 800083e:	b089      	sub	sp, #36	@ 0x24
 8000840:	eb0d 0002 	add.w	r0, sp, r2
 8000844:	2100      	movs	r1, #0
 8000846:	f004 fdd5 	bl	80053f4 <memset>
 800084a:	4b3a      	ldr	r3, [pc, #232]	@ (8000934 <MX_GPIO_Init+0x100>)
 800084c:	4e3a      	ldr	r6, [pc, #232]	@ (8000938 <MX_GPIO_Init+0x104>)
 800084e:	699a      	ldr	r2, [r3, #24]
 8000850:	f8df 80e8 	ldr.w	r8, [pc, #232]	@ 800093c <MX_GPIO_Init+0x108>
 8000854:	f042 0220 	orr.w	r2, r2, #32
 8000858:	619a      	str	r2, [r3, #24]
 800085a:	699a      	ldr	r2, [r3, #24]
 800085c:	4630      	mov	r0, r6
 800085e:	f002 0220 	and.w	r2, r2, #32
 8000862:	9201      	str	r2, [sp, #4]
 8000864:	9a01      	ldr	r2, [sp, #4]
 8000866:	699a      	ldr	r2, [r3, #24]
 8000868:	f44f 7180 	mov.w	r1, #256	@ 0x100
 800086c:	f042 0204 	orr.w	r2, r2, #4
 8000870:	619a      	str	r2, [r3, #24]
 8000872:	699a      	ldr	r2, [r3, #24]
 8000874:	f8df 90c8 	ldr.w	r9, [pc, #200]	@ 8000940 <MX_GPIO_Init+0x10c>
 8000878:	f002 0204 	and.w	r2, r2, #4
 800087c:	9202      	str	r2, [sp, #8]
 800087e:	9a02      	ldr	r2, [sp, #8]
 8000880:	699a      	ldr	r2, [r3, #24]
 8000882:	2700      	movs	r7, #0
 8000884:	f042 0210 	orr.w	r2, r2, #16
 8000888:	619a      	str	r2, [r3, #24]
 800088a:	699b      	ldr	r3, [r3, #24]
 800088c:	2200      	movs	r2, #0
 800088e:	f003 0310 	and.w	r3, r3, #16
 8000892:	9303      	str	r3, [sp, #12]
 8000894:	9b03      	ldr	r3, [sp, #12]
 8000896:	f004 fb35 	bl	8004f04 <HAL_GPIO_WritePin>
 800089a:	2200      	movs	r2, #0
 800089c:	4640      	mov	r0, r8
 800089e:	2104      	movs	r1, #4
 80008a0:	f004 fb30 	bl	8004f04 <HAL_GPIO_WritePin>
 80008a4:	4b27      	ldr	r3, [pc, #156]	@ (8000944 <MX_GPIO_Init+0x110>)
 80008a6:	4630      	mov	r0, r6
 80008a8:	a904      	add	r1, sp, #16
 80008aa:	e9cd 4304 	strd	r4, r3, [sp, #16]
 80008ae:	9506      	str	r5, [sp, #24]
 80008b0:	f004 fa3c 	bl	8004d2c <HAL_GPIO_Init>
 80008b4:	2320      	movs	r3, #32
 80008b6:	a904      	add	r1, sp, #16
 80008b8:	4823      	ldr	r0, [pc, #140]	@ (8000948 <MX_GPIO_Init+0x114>)
 80008ba:	e9cd 3904 	strd	r3, r9, [sp, #16]
 80008be:	9406      	str	r4, [sp, #24]
 80008c0:	f004 fa34 	bl	8004d2c <HAL_GPIO_Init>
 80008c4:	f44f 7380 	mov.w	r3, #256	@ 0x100
 80008c8:	4630      	mov	r0, r6
 80008ca:	a904      	add	r1, sp, #16
 80008cc:	e9cd 3404 	strd	r3, r4, [sp, #16]
 80008d0:	e9cd 7506 	strd	r7, r5, [sp, #24]
 80008d4:	f004 fa2a 	bl	8004d2c <HAL_GPIO_Init>
 80008d8:	f44f 4300 	mov.w	r3, #32768	@ 0x8000
 80008dc:	4630      	mov	r0, r6
 80008de:	a904      	add	r1, sp, #16
 80008e0:	e9cd 3904 	strd	r3, r9, [sp, #16]
 80008e4:	9406      	str	r4, [sp, #24]
 80008e6:	f004 fa21 	bl	8004d2c <HAL_GPIO_Init>
 80008ea:	2304      	movs	r3, #4
 80008ec:	4640      	mov	r0, r8
 80008ee:	a904      	add	r1, sp, #16
 80008f0:	e9cd 3404 	strd	r3, r4, [sp, #16]
 80008f4:	e9cd 7506 	strd	r7, r5, [sp, #24]
 80008f8:	f004 fa18 	bl	8004d2c <HAL_GPIO_Init>
 80008fc:	463a      	mov	r2, r7
 80008fe:	4621      	mov	r1, r4
 8000900:	2006      	movs	r0, #6
 8000902:	f004 f9c1 	bl	8004c88 <HAL_NVIC_SetPriority>
 8000906:	2006      	movs	r0, #6
 8000908:	f004 f9ee 	bl	8004ce8 <HAL_NVIC_EnableIRQ>
 800090c:	4622      	mov	r2, r4
 800090e:	4621      	mov	r1, r4
 8000910:	2017      	movs	r0, #23
 8000912:	f004 f9b9 	bl	8004c88 <HAL_NVIC_SetPriority>
 8000916:	2017      	movs	r0, #23
 8000918:	f004 f9e6 	bl	8004ce8 <HAL_NVIC_EnableIRQ>
 800091c:	462a      	mov	r2, r5
 800091e:	4621      	mov	r1, r4
 8000920:	2028      	movs	r0, #40	@ 0x28
 8000922:	f004 f9b1 	bl	8004c88 <HAL_NVIC_SetPriority>
 8000926:	2028      	movs	r0, #40	@ 0x28
 8000928:	f004 f9de 	bl	8004ce8 <HAL_NVIC_EnableIRQ>
 800092c:	b009      	add	sp, #36	@ 0x24
 800092e:	e8bd 83f0 	ldmia.w	sp!, {r4, r5, r6, r7, r8, r9, pc}
 8000932:	bf00      	nop
 8000934:	40021000 	.word	0x40021000
 8000938:	40010800 	.word	0x40010800
 800093c:	40011400 	.word	0x40011400
 8000940:	10210000 	.word	0x10210000
 8000944:	10110000 	.word	0x10110000
 8000948:	40011000 	.word	0x40011000

0800094c <lcd_rd_data>:
 800094c:	b5f0      	push	{r4, r5, r6, r7, lr}
 800094e:	2300      	movs	r3, #0
 8000950:	2501      	movs	r5, #1
 8000952:	f64f 77ff 	movw	r7, #65535	@ 0xffff
 8000956:	2603      	movs	r6, #3
 8000958:	4c14      	ldr	r4, [pc, #80]	@ (80009ac <lcd_rd_data+0x60>)
 800095a:	b087      	sub	sp, #28
 800095c:	4620      	mov	r0, r4
 800095e:	a902      	add	r1, sp, #8
 8000960:	e9cd 7302 	strd	r7, r3, [sp, #8]
 8000964:	e9cd 5604 	strd	r5, r6, [sp, #16]
 8000968:	f004 f9e0 	bl	8004d2c <HAL_GPIO_Init>
 800096c:	f44f 7280 	mov.w	r2, #256	@ 0x100
 8000970:	4b0f      	ldr	r3, [pc, #60]	@ (80009b0 <lcd_rd_data+0x64>)
 8000972:	4620      	mov	r0, r4
 8000974:	611a      	str	r2, [r3, #16]
 8000976:	f04f 7200 	mov.w	r2, #33554432	@ 0x2000000
 800097a:	611a      	str	r2, [r3, #16]
 800097c:	f44f 0280 	mov.w	r2, #4194304	@ 0x400000
 8000980:	611a      	str	r2, [r3, #16]
 8000982:	68a2      	ldr	r2, [r4, #8]
 8000984:	a902      	add	r1, sp, #8
 8000986:	b292      	uxth	r2, r2
 8000988:	f8ad 2006 	strh.w	r2, [sp, #6]
 800098c:	2240      	movs	r2, #64	@ 0x40
 800098e:	611a      	str	r2, [r3, #16]
 8000990:	f44f 7200 	mov.w	r2, #512	@ 0x200
 8000994:	611a      	str	r2, [r3, #16]
 8000996:	e9cd 7502 	strd	r7, r5, [sp, #8]
 800099a:	e9cd 5604 	strd	r5, r6, [sp, #16]
 800099e:	f004 f9c5 	bl	8004d2c <HAL_GPIO_Init>
 80009a2:	f8bd 0006 	ldrh.w	r0, [sp, #6]
 80009a6:	b280      	uxth	r0, r0
 80009a8:	b007      	add	sp, #28
 80009aa:	bdf0      	pop	{r4, r5, r6, r7, pc}
 80009ac:	40010c00 	.word	0x40010c00
 80009b0:	40011000 	.word	0x40011000

080009b4 <lcd_wr_xdata>:
 80009b4:	f44f 7280 	mov.w	r2, #256	@ 0x100
 80009b8:	4b07      	ldr	r3, [pc, #28]	@ (80009d8 <lcd_wr_xdata+0x24>)
 80009ba:	611a      	str	r2, [r3, #16]
 80009bc:	f04f 7200 	mov.w	r2, #33554432	@ 0x2000000
 80009c0:	611a      	str	r2, [r3, #16]
 80009c2:	4a06      	ldr	r2, [pc, #24]	@ (80009dc <lcd_wr_xdata+0x28>)
 80009c4:	60d0      	str	r0, [r2, #12]
 80009c6:	f44f 0200 	mov.w	r2, #8388608	@ 0x800000
 80009ca:	611a      	str	r2, [r3, #16]
 80009cc:	2280      	movs	r2, #128	@ 0x80
 80009ce:	611a      	str	r2, [r3, #16]
 80009d0:	f44f 7200 	mov.w	r2, #512	@ 0x200
 80009d4:	611a      	str	r2, [r3, #16]
 80009d6:	4770      	bx	lr
 80009d8:	40011000 	.word	0x40011000
 80009dc:	40010c00 	.word	0x40010c00

080009e0 <lcd_write_reg>:
 80009e0:	b5f0      	push	{r4, r5, r6, r7, lr}
 80009e2:	f04f 7280 	mov.w	r2, #16777216	@ 0x1000000
 80009e6:	f04f 7600 	mov.w	r6, #33554432	@ 0x2000000
 80009ea:	4b0b      	ldr	r3, [pc, #44]	@ (8000a18 <lcd_write_reg+0x38>)
 80009ec:	4d0b      	ldr	r5, [pc, #44]	@ (8000a1c <lcd_write_reg+0x3c>)
 80009ee:	611a      	str	r2, [r3, #16]
 80009f0:	f44f 0400 	mov.w	r4, #8388608	@ 0x800000
 80009f4:	611e      	str	r6, [r3, #16]
 80009f6:	f44f 7200 	mov.w	r2, #512	@ 0x200
 80009fa:	60e8      	str	r0, [r5, #12]
 80009fc:	f44f 7780 	mov.w	r7, #256	@ 0x100
 8000a00:	2080      	movs	r0, #128	@ 0x80
 8000a02:	611c      	str	r4, [r3, #16]
 8000a04:	6118      	str	r0, [r3, #16]
 8000a06:	611a      	str	r2, [r3, #16]
 8000a08:	611f      	str	r7, [r3, #16]
 8000a0a:	611e      	str	r6, [r3, #16]
 8000a0c:	60e9      	str	r1, [r5, #12]
 8000a0e:	611c      	str	r4, [r3, #16]
 8000a10:	6118      	str	r0, [r3, #16]
 8000a12:	611a      	str	r2, [r3, #16]
 8000a14:	bdf0      	pop	{r4, r5, r6, r7, pc}
 8000a16:	bf00      	nop
 8000a18:	40011000 	.word	0x40011000
 8000a1c:	40010c00 	.word	0x40010c00

08000a20 <lcd_set_cursor>:
 8000a20:	f641 1363 	movw	r3, #6499	@ 0x1963
 8000a24:	e92d 4ff0 	stmdb	sp!, {r4, r5, r6, r7, r8, r9, sl, fp, lr}
 8000a28:	4cb1      	ldr	r4, [pc, #708]	@ (8000cf0 <lcd_set_cursor+0x2d0>)
 8000a2a:	ea4f 2911 	mov.w	r9, r1, lsr #8
 8000a2e:	88a2      	ldrh	r2, [r4, #4]
 8000a30:	4684      	mov	ip, r0
 8000a32:	429a      	cmp	r2, r3
 8000a34:	8965      	ldrh	r5, [r4, #10]
 8000a36:	89a6      	ldrh	r6, [r4, #12]
 8000a38:	4bae      	ldr	r3, [pc, #696]	@ (8000cf4 <lcd_set_cursor+0x2d4>)
 8000a3a:	b2c9      	uxtb	r1, r1
 8000a3c:	f040 80bf 	bne.w	8000bbe <lcd_set_cursor+0x19e>
 8000a40:	8822      	ldrh	r2, [r4, #0]
 8000a42:	f894 e006 	ldrb.w	lr, [r4, #6]
 8000a46:	3a01      	subs	r2, #1
 8000a48:	f1be 0f00 	cmp.w	lr, #0
 8000a4c:	d176      	bne.n	8000b3c <lcd_set_cursor+0x11c>
 8000a4e:	eba2 0800 	sub.w	r8, r2, r0
 8000a52:	f04f 7280 	mov.w	r2, #16777216	@ 0x1000000
 8000a56:	f04f 7c00 	mov.w	ip, #33554432	@ 0x2000000
 8000a5a:	611a      	str	r2, [r3, #16]
 8000a5c:	4aa6      	ldr	r2, [pc, #664]	@ (8000cf8 <lcd_set_cursor+0x2d8>)
 8000a5e:	f8c3 c010 	str.w	ip, [r3, #16]
 8000a62:	f44f 0700 	mov.w	r7, #8388608	@ 0x800000
 8000a66:	60d5      	str	r5, [r2, #12]
 8000a68:	f44f 7000 	mov.w	r0, #512	@ 0x200
 8000a6c:	2580      	movs	r5, #128	@ 0x80
 8000a6e:	f44f 7a80 	mov.w	sl, #256	@ 0x100
 8000a72:	611f      	str	r7, [r3, #16]
 8000a74:	611d      	str	r5, [r3, #16]
 8000a76:	6118      	str	r0, [r3, #16]
 8000a78:	f8c3 a010 	str.w	sl, [r3, #16]
 8000a7c:	f8c3 c010 	str.w	ip, [r3, #16]
 8000a80:	f8c2 e00c 	str.w	lr, [r2, #12]
 8000a84:	611f      	str	r7, [r3, #16]
 8000a86:	611d      	str	r5, [r3, #16]
 8000a88:	6118      	str	r0, [r3, #16]
 8000a8a:	f8c3 a010 	str.w	sl, [r3, #16]
 8000a8e:	f8c3 c010 	str.w	ip, [r3, #16]
 8000a92:	f8c2 e00c 	str.w	lr, [r2, #12]
 8000a96:	f3c8 2e07 	ubfx	lr, r8, #8, #8
 8000a9a:	fa5f f888 	uxtb.w	r8, r8
 8000a9e:	611f      	str	r7, [r3, #16]
 8000aa0:	611d      	str	r5, [r3, #16]
 8000aa2:	6118      	str	r0, [r3, #16]
 8000aa4:	f8c3 a010 	str.w	sl, [r3, #16]
 8000aa8:	f8c3 c010 	str.w	ip, [r3, #16]
 8000aac:	f8c2 e00c 	str.w	lr, [r2, #12]
 8000ab0:	611f      	str	r7, [r3, #16]
 8000ab2:	611d      	str	r5, [r3, #16]
 8000ab4:	6118      	str	r0, [r3, #16]
 8000ab6:	f8c3 a010 	str.w	sl, [r3, #16]
 8000aba:	f8c3 c010 	str.w	ip, [r3, #16]
 8000abe:	f8c2 800c 	str.w	r8, [r2, #12]
 8000ac2:	611f      	str	r7, [r3, #16]
 8000ac4:	611d      	str	r5, [r3, #16]
 8000ac6:	6118      	str	r0, [r3, #16]
 8000ac8:	f04f 7c00 	mov.w	ip, #33554432	@ 0x2000000
 8000acc:	f04f 7280 	mov.w	r2, #16777216	@ 0x1000000
 8000ad0:	4f89      	ldr	r7, [pc, #548]	@ (8000cf8 <lcd_set_cursor+0x2d8>)
 8000ad2:	611a      	str	r2, [r3, #16]
 8000ad4:	2580      	movs	r5, #128	@ 0x80
 8000ad6:	f8c3 c010 	str.w	ip, [r3, #16]
 8000ada:	f44f 7000 	mov.w	r0, #512	@ 0x200
 8000ade:	60fe      	str	r6, [r7, #12]
 8000ae0:	f44f 7e80 	mov.w	lr, #256	@ 0x100
 8000ae4:	f44f 0600 	mov.w	r6, #8388608	@ 0x800000
 8000ae8:	8862      	ldrh	r2, [r4, #2]
 8000aea:	611e      	str	r6, [r3, #16]
 8000aec:	3a01      	subs	r2, #1
 8000aee:	611d      	str	r5, [r3, #16]
 8000af0:	6118      	str	r0, [r3, #16]
 8000af2:	f8c3 e010 	str.w	lr, [r3, #16]
 8000af6:	f8c3 c010 	str.w	ip, [r3, #16]
 8000afa:	f8c7 900c 	str.w	r9, [r7, #12]
 8000afe:	611e      	str	r6, [r3, #16]
 8000b00:	611d      	str	r5, [r3, #16]
 8000b02:	6118      	str	r0, [r3, #16]
 8000b04:	f8c3 e010 	str.w	lr, [r3, #16]
 8000b08:	f8c3 c010 	str.w	ip, [r3, #16]
 8000b0c:	60f9      	str	r1, [r7, #12]
 8000b0e:	1211      	asrs	r1, r2, #8
 8000b10:	b2d2      	uxtb	r2, r2
 8000b12:	611e      	str	r6, [r3, #16]
 8000b14:	611d      	str	r5, [r3, #16]
 8000b16:	6118      	str	r0, [r3, #16]
 8000b18:	f8c3 e010 	str.w	lr, [r3, #16]
 8000b1c:	f8c3 c010 	str.w	ip, [r3, #16]
 8000b20:	60f9      	str	r1, [r7, #12]
 8000b22:	611e      	str	r6, [r3, #16]
 8000b24:	611d      	str	r5, [r3, #16]
 8000b26:	6118      	str	r0, [r3, #16]
 8000b28:	f8c3 e010 	str.w	lr, [r3, #16]
 8000b2c:	f8c3 c010 	str.w	ip, [r3, #16]
 8000b30:	60fa      	str	r2, [r7, #12]
 8000b32:	611e      	str	r6, [r3, #16]
 8000b34:	611d      	str	r5, [r3, #16]
 8000b36:	6118      	str	r0, [r3, #16]
 8000b38:	e8bd 8ff0 	ldmia.w	sp!, {r4, r5, r6, r7, r8, r9, sl, fp, pc}
 8000b3c:	f04f 7800 	mov.w	r8, #33554432	@ 0x2000000
 8000b40:	f04f 7080 	mov.w	r0, #16777216	@ 0x1000000
 8000b44:	f8df e1b0 	ldr.w	lr, [pc, #432]	@ 8000cf8 <lcd_set_cursor+0x2d8>
 8000b48:	6118      	str	r0, [r3, #16]
 8000b4a:	2780      	movs	r7, #128	@ 0x80
 8000b4c:	f8c3 8010 	str.w	r8, [r3, #16]
 8000b50:	f44f 0000 	mov.w	r0, #8388608	@ 0x800000
 8000b54:	f8ce 500c 	str.w	r5, [lr, #12]
 8000b58:	f44f 7a80 	mov.w	sl, #256	@ 0x100
 8000b5c:	f44f 7500 	mov.w	r5, #512	@ 0x200
 8000b60:	ea4f 2b1c 	mov.w	fp, ip, lsr #8
 8000b64:	fa5f fc8c 	uxtb.w	ip, ip
 8000b68:	6118      	str	r0, [r3, #16]
 8000b6a:	611f      	str	r7, [r3, #16]
 8000b6c:	611d      	str	r5, [r3, #16]
 8000b6e:	f8c3 a010 	str.w	sl, [r3, #16]
 8000b72:	f8c3 8010 	str.w	r8, [r3, #16]
 8000b76:	f8ce b00c 	str.w	fp, [lr, #12]
 8000b7a:	6118      	str	r0, [r3, #16]
 8000b7c:	611f      	str	r7, [r3, #16]
 8000b7e:	611d      	str	r5, [r3, #16]
 8000b80:	f8c3 a010 	str.w	sl, [r3, #16]
 8000b84:	f8c3 8010 	str.w	r8, [r3, #16]
 8000b88:	f8ce c00c 	str.w	ip, [lr, #12]
 8000b8c:	ea4f 2c22 	mov.w	ip, r2, asr #8
 8000b90:	b2d2      	uxtb	r2, r2
 8000b92:	6118      	str	r0, [r3, #16]
 8000b94:	611f      	str	r7, [r3, #16]
 8000b96:	611d      	str	r5, [r3, #16]
 8000b98:	f8c3 a010 	str.w	sl, [r3, #16]
 8000b9c:	f8c3 8010 	str.w	r8, [r3, #16]
 8000ba0:	f8ce c00c 	str.w	ip, [lr, #12]
 8000ba4:	6118      	str	r0, [r3, #16]
 8000ba6:	611f      	str	r7, [r3, #16]
 8000ba8:	611d      	str	r5, [r3, #16]
 8000baa:	f8c3 a010 	str.w	sl, [r3, #16]
 8000bae:	f8c3 8010 	str.w	r8, [r3, #16]
 8000bb2:	f8ce 200c 	str.w	r2, [lr, #12]
 8000bb6:	6118      	str	r0, [r3, #16]
 8000bb8:	611f      	str	r7, [r3, #16]
 8000bba:	611d      	str	r5, [r3, #16]
 8000bbc:	e784      	b.n	8000ac8 <lcd_set_cursor+0xa8>
 8000bbe:	f245 5410 	movw	r4, #21776	@ 0x5510
 8000bc2:	f04f 7880 	mov.w	r8, #16777216	@ 0x1000000
 8000bc6:	42a2      	cmp	r2, r4
 8000bc8:	f04f 7400 	mov.w	r4, #33554432	@ 0x2000000
 8000bcc:	4a4a      	ldr	r2, [pc, #296]	@ (8000cf8 <lcd_set_cursor+0x2d8>)
 8000bce:	f8c3 8010 	str.w	r8, [r3, #16]
 8000bd2:	ea4f 2a10 	mov.w	sl, r0, lsr #8
 8000bd6:	611c      	str	r4, [r3, #16]
 8000bd8:	b2c0      	uxtb	r0, r0
 8000bda:	60d5      	str	r5, [r2, #12]
 8000bdc:	d152      	bne.n	8000c84 <lcd_set_cursor+0x264>
 8000bde:	f44f 0e00 	mov.w	lr, #8388608	@ 0x800000
 8000be2:	f04f 0c80 	mov.w	ip, #128	@ 0x80
 8000be6:	f44f 7700 	mov.w	r7, #512	@ 0x200
 8000bea:	f44f 7b80 	mov.w	fp, #256	@ 0x100
 8000bee:	3501      	adds	r5, #1
 8000bf0:	b2ad      	uxth	r5, r5
 8000bf2:	f8c3 e010 	str.w	lr, [r3, #16]
 8000bf6:	f8c3 c010 	str.w	ip, [r3, #16]
 8000bfa:	611f      	str	r7, [r3, #16]
 8000bfc:	f8c3 b010 	str.w	fp, [r3, #16]
 8000c00:	611c      	str	r4, [r3, #16]
 8000c02:	f8c2 a00c 	str.w	sl, [r2, #12]
 8000c06:	f8c3 e010 	str.w	lr, [r3, #16]
 8000c0a:	f8c3 c010 	str.w	ip, [r3, #16]
 8000c0e:	611f      	str	r7, [r3, #16]
 8000c10:	f8c3 8010 	str.w	r8, [r3, #16]
 8000c14:	611c      	str	r4, [r3, #16]
 8000c16:	60d5      	str	r5, [r2, #12]
 8000c18:	f8c3 e010 	str.w	lr, [r3, #16]
 8000c1c:	f8c3 c010 	str.w	ip, [r3, #16]
 8000c20:	611f      	str	r7, [r3, #16]
 8000c22:	f8c3 b010 	str.w	fp, [r3, #16]
 8000c26:	611c      	str	r4, [r3, #16]
 8000c28:	60d0      	str	r0, [r2, #12]
 8000c2a:	f8c3 e010 	str.w	lr, [r3, #16]
 8000c2e:	f8c3 c010 	str.w	ip, [r3, #16]
 8000c32:	611f      	str	r7, [r3, #16]
 8000c34:	f8c3 8010 	str.w	r8, [r3, #16]
 8000c38:	611c      	str	r4, [r3, #16]
 8000c3a:	60d6      	str	r6, [r2, #12]
 8000c3c:	3601      	adds	r6, #1
 8000c3e:	b2b6      	uxth	r6, r6
 8000c40:	f8c3 e010 	str.w	lr, [r3, #16]
 8000c44:	f8c3 c010 	str.w	ip, [r3, #16]
 8000c48:	611f      	str	r7, [r3, #16]
 8000c4a:	f8c3 b010 	str.w	fp, [r3, #16]
 8000c4e:	611c      	str	r4, [r3, #16]
 8000c50:	f8c2 900c 	str.w	r9, [r2, #12]
 8000c54:	f8c3 e010 	str.w	lr, [r3, #16]
 8000c58:	f8c3 c010 	str.w	ip, [r3, #16]
 8000c5c:	611f      	str	r7, [r3, #16]
 8000c5e:	f8c3 8010 	str.w	r8, [r3, #16]
 8000c62:	611c      	str	r4, [r3, #16]
 8000c64:	60d6      	str	r6, [r2, #12]
 8000c66:	f8c3 e010 	str.w	lr, [r3, #16]
 8000c6a:	f8c3 c010 	str.w	ip, [r3, #16]
 8000c6e:	611f      	str	r7, [r3, #16]
 8000c70:	f8c3 b010 	str.w	fp, [r3, #16]
 8000c74:	611c      	str	r4, [r3, #16]
 8000c76:	60d1      	str	r1, [r2, #12]
 8000c78:	f8c3 e010 	str.w	lr, [r3, #16]
 8000c7c:	f8c3 c010 	str.w	ip, [r3, #16]
 8000c80:	611f      	str	r7, [r3, #16]
 8000c82:	e759      	b.n	8000b38 <lcd_set_cursor+0x118>
 8000c84:	f44f 0c00 	mov.w	ip, #8388608	@ 0x800000
 8000c88:	2780      	movs	r7, #128	@ 0x80
 8000c8a:	f44f 7500 	mov.w	r5, #512	@ 0x200
 8000c8e:	f44f 7e80 	mov.w	lr, #256	@ 0x100
 8000c92:	f8c3 c010 	str.w	ip, [r3, #16]
 8000c96:	611f      	str	r7, [r3, #16]
 8000c98:	611d      	str	r5, [r3, #16]
 8000c9a:	f8c3 e010 	str.w	lr, [r3, #16]
 8000c9e:	611c      	str	r4, [r3, #16]
 8000ca0:	f8c2 a00c 	str.w	sl, [r2, #12]
 8000ca4:	f8c3 c010 	str.w	ip, [r3, #16]
 8000ca8:	611f      	str	r7, [r3, #16]
 8000caa:	611d      	str	r5, [r3, #16]
 8000cac:	f8c3 e010 	str.w	lr, [r3, #16]
 8000cb0:	611c      	str	r4, [r3, #16]
 8000cb2:	60d0      	str	r0, [r2, #12]
 8000cb4:	f8c3 c010 	str.w	ip, [r3, #16]
 8000cb8:	611f      	str	r7, [r3, #16]
 8000cba:	611d      	str	r5, [r3, #16]
 8000cbc:	f8c3 8010 	str.w	r8, [r3, #16]
 8000cc0:	611c      	str	r4, [r3, #16]
 8000cc2:	60d6      	str	r6, [r2, #12]
 8000cc4:	f8c3 c010 	str.w	ip, [r3, #16]
 8000cc8:	611f      	str	r7, [r3, #16]
 8000cca:	611d      	str	r5, [r3, #16]
 8000ccc:	f8c3 e010 	str.w	lr, [r3, #16]
 8000cd0:	611c      	str	r4, [r3, #16]
 8000cd2:	f8c2 900c 	str.w	r9, [r2, #12]
 8000cd6:	f8c3 c010 	str.w	ip, [r3, #16]
 8000cda:	611f      	str	r7, [r3, #16]
 8000cdc:	611d      	str	r5, [r3, #16]
 8000cde:	f8c3 e010 	str.w	lr, [r3, #16]
 8000ce2:	611c      	str	r4, [r3, #16]
 8000ce4:	60d1      	str	r1, [r2, #12]
 8000ce6:	f8c3 c010 	str.w	ip, [r3, #16]
 8000cea:	611f      	str	r7, [r3, #16]
 8000cec:	611d      	str	r5, [r3, #16]
 8000cee:	e723      	b.n	8000b38 <lcd_set_cursor+0x118>
 8000cf0:	2000002c 	.word	0x2000002c
 8000cf4:	40011000 	.word	0x40011000
 8000cf8:	40010c00 	.word	0x40010c00

08000cfc <lcd_scan_dir>:
 8000cfc:	e92d 4ff8 	stmdb	sp!, {r3, r4, r5, r6, r7, r8, r9, sl, fp, lr}
 8000d00:	4c92      	ldr	r4, [pc, #584]	@ (8000f4c <lcd_scan_dir+0x250>)
 8000d02:	f641 1363 	movw	r3, #6499	@ 0x1963
 8000d06:	79a2      	ldrb	r2, [r4, #6]
 8000d08:	88a5      	ldrh	r5, [r4, #4]
 8000d0a:	2a01      	cmp	r2, #1
 8000d0c:	d10e      	bne.n	8000d2c <lcd_scan_dir+0x30>
 8000d0e:	429d      	cmp	r5, r3
 8000d10:	d11c      	bne.n	8000d4c <lcd_scan_dir+0x50>
 8000d12:	3801      	subs	r0, #1
 8000d14:	2806      	cmp	r0, #6
 8000d16:	f200 8181 	bhi.w	800101c <lcd_scan_dir+0x320>
 8000d1a:	e8df f010 	tbh	[pc, r0, lsl #1]
 8000d1e:	0185      	.short	0x0185
 8000d20:	01810183 	.word	0x01810183
 8000d24:	01890187 	.word	0x01890187
 8000d28:	004e005f 	.word	0x004e005f
 8000d2c:	b9b2      	cbnz	r2, 8000d5c <lcd_scan_dir+0x60>
 8000d2e:	429d      	cmp	r5, r3
 8000d30:	d114      	bne.n	8000d5c <lcd_scan_dir+0x60>
 8000d32:	2807      	cmp	r0, #7
 8000d34:	f200 8172 	bhi.w	800101c <lcd_scan_dir+0x320>
 8000d38:	e8df f010 	tbh	[pc, r0, lsl #1]
 8000d3c:	003f0050 	.word	0x003f0050
 8000d40:	017a0178 	.word	0x017a0178
 8000d44:	01700176 	.word	0x01700176
 8000d48:	01740172 	.word	0x01740172
 8000d4c:	2807      	cmp	r0, #7
 8000d4e:	d80e      	bhi.n	8000d6e <lcd_scan_dir+0x72>
 8000d50:	e8df f000 	tbb	[pc, r0]
 8000d54:	2729312f 	.word	0x2729312f
 8000d58:	2d2b0d25 	.word	0x2d2b0d25
 8000d5c:	3801      	subs	r0, #1
 8000d5e:	2806      	cmp	r0, #6
 8000d60:	d805      	bhi.n	8000d6e <lcd_scan_dir+0x72>
 8000d62:	e8df f000 	tbb	[pc, r0]
 8000d66:	241c      	.short	0x241c
 8000d68:	261e2022 	.word	0x261e2022
 8000d6c:	28          	.byte	0x28
 8000d6d:	00          	.byte	0x00
 8000d6e:	2100      	movs	r1, #0
 8000d70:	f245 5310 	movw	r3, #21776	@ 0x5510
 8000d74:	429d      	cmp	r5, r3
 8000d76:	d121      	bne.n	8000dbc <lcd_scan_dir+0xc0>
 8000d78:	f44f 5058 	mov.w	r0, #13824	@ 0x3600
 8000d7c:	f7ff fe30 	bl	80009e0 <lcd_write_reg>
 8000d80:	f641 1363 	movw	r3, #6499	@ 0x1963
 8000d84:	429d      	cmp	r5, r3
 8000d86:	8822      	ldrh	r2, [r4, #0]
 8000d88:	8860      	ldrh	r0, [r4, #2]
 8000d8a:	4b71      	ldr	r3, [pc, #452]	@ (8000f50 <lcd_scan_dir+0x254>)
 8000d8c:	f000 80e4 	beq.w	8000f58 <lcd_scan_dir+0x25c>
 8000d90:	0689      	lsls	r1, r1, #26
 8000d92:	d526      	bpl.n	8000de2 <lcd_scan_dir+0xe6>
 8000d94:	4282      	cmp	r2, r0
 8000d96:	d226      	bcs.n	8000de6 <lcd_scan_dir+0xea>
 8000d98:	8020      	strh	r0, [r4, #0]
 8000d9a:	8062      	strh	r2, [r4, #2]
 8000d9c:	e023      	b.n	8000de6 <lcd_scan_dir+0xea>
 8000d9e:	2180      	movs	r1, #128	@ 0x80
 8000da0:	e7e6      	b.n	8000d70 <lcd_scan_dir+0x74>
 8000da2:	2160      	movs	r1, #96	@ 0x60
 8000da4:	e7e4      	b.n	8000d70 <lcd_scan_dir+0x74>
 8000da6:	2120      	movs	r1, #32
 8000da8:	e7e2      	b.n	8000d70 <lcd_scan_dir+0x74>
 8000daa:	21c0      	movs	r1, #192	@ 0xc0
 8000dac:	e7e0      	b.n	8000d70 <lcd_scan_dir+0x74>
 8000dae:	2140      	movs	r1, #64	@ 0x40
 8000db0:	e7de      	b.n	8000d70 <lcd_scan_dir+0x74>
 8000db2:	21a0      	movs	r1, #160	@ 0xa0
 8000db4:	e7dc      	b.n	8000d70 <lcd_scan_dir+0x74>
 8000db6:	21e0      	movs	r1, #224	@ 0xe0
 8000db8:	e7da      	b.n	8000d70 <lcd_scan_dir+0x74>
 8000dba:	21e0      	movs	r1, #224	@ 0xe0
 8000dbc:	f249 3341 	movw	r3, #37697	@ 0x9341
 8000dc0:	429d      	cmp	r5, r3
 8000dc2:	d007      	beq.n	8000dd4 <lcd_scan_dir+0xd8>
 8000dc4:	f247 7389 	movw	r3, #30601	@ 0x7789
 8000dc8:	429d      	cmp	r5, r3
 8000dca:	d003      	beq.n	8000dd4 <lcd_scan_dir+0xd8>
 8000dcc:	f247 7396 	movw	r3, #30614	@ 0x7796
 8000dd0:	429d      	cmp	r5, r3
 8000dd2:	d101      	bne.n	8000dd8 <lcd_scan_dir+0xdc>
 8000dd4:	f041 0108 	orr.w	r1, r1, #8
 8000dd8:	2036      	movs	r0, #54	@ 0x36
 8000dda:	e7cf      	b.n	8000d7c <lcd_scan_dir+0x80>
 8000ddc:	2036      	movs	r0, #54	@ 0x36
 8000dde:	21a0      	movs	r1, #160	@ 0xa0
 8000de0:	e7cc      	b.n	8000d7c <lcd_scan_dir+0x80>
 8000de2:	4282      	cmp	r2, r0
 8000de4:	d8d8      	bhi.n	8000d98 <lcd_scan_dir+0x9c>
 8000de6:	f245 5210 	movw	r2, #21776	@ 0x5510
 8000dea:	4295      	cmp	r5, r2
 8000dec:	f8b4 9000 	ldrh.w	r9, [r4]
 8000df0:	f8b4 8002 	ldrh.w	r8, [r4, #2]
 8000df4:	f8b4 e00a 	ldrh.w	lr, [r4, #10]
 8000df8:	89a7      	ldrh	r7, [r4, #12]
 8000dfa:	f040 80ad 	bne.w	8000f58 <lcd_scan_dir+0x25c>
 8000dfe:	f04f 7500 	mov.w	r5, #33554432	@ 0x2000000
 8000e02:	f44f 0000 	mov.w	r0, #8388608	@ 0x800000
 8000e06:	2180      	movs	r1, #128	@ 0x80
 8000e08:	f44f 7200 	mov.w	r2, #512	@ 0x200
 8000e0c:	f04f 7c80 	mov.w	ip, #16777216	@ 0x1000000
 8000e10:	f44f 7680 	mov.w	r6, #256	@ 0x100
 8000e14:	f04f 0a00 	mov.w	sl, #0
 8000e18:	4c4e      	ldr	r4, [pc, #312]	@ (8000f54 <lcd_scan_dir+0x258>)
 8000e1a:	f10e 0b01 	add.w	fp, lr, #1
 8000e1e:	fa1f fb8b 	uxth.w	fp, fp
 8000e22:	f8c3 c010 	str.w	ip, [r3, #16]
 8000e26:	611d      	str	r5, [r3, #16]
 8000e28:	f8c4 e00c 	str.w	lr, [r4, #12]
 8000e2c:	6118      	str	r0, [r3, #16]
 8000e2e:	6119      	str	r1, [r3, #16]
 8000e30:	611a      	str	r2, [r3, #16]
 8000e32:	611e      	str	r6, [r3, #16]
 8000e34:	611d      	str	r5, [r3, #16]
 8000e36:	f8c4 a00c 	str.w	sl, [r4, #12]
 8000e3a:	6118      	str	r0, [r3, #16]
 8000e3c:	6119      	str	r1, [r3, #16]
 8000e3e:	611a      	str	r2, [r3, #16]
 8000e40:	f8c3 c010 	str.w	ip, [r3, #16]
 8000e44:	611d      	str	r5, [r3, #16]
 8000e46:	f8c4 b00c 	str.w	fp, [r4, #12]
 8000e4a:	f10e 0b02 	add.w	fp, lr, #2
 8000e4e:	f109 39ff 	add.w	r9, r9, #4294967295
 8000e52:	fa1f fb8b 	uxth.w	fp, fp
 8000e56:	f10e 0e03 	add.w	lr, lr, #3
 8000e5a:	6118      	str	r0, [r3, #16]
 8000e5c:	fa1f fe8e 	uxth.w	lr, lr
 8000e60:	6119      	str	r1, [r3, #16]
 8000e62:	611a      	str	r2, [r3, #16]
 8000e64:	611e      	str	r6, [r3, #16]
 8000e66:	611d      	str	r5, [r3, #16]
 8000e68:	f8c4 a00c 	str.w	sl, [r4, #12]
 8000e6c:	6118      	str	r0, [r3, #16]
 8000e6e:	6119      	str	r1, [r3, #16]
 8000e70:	611a      	str	r2, [r3, #16]
 8000e72:	f8c3 c010 	str.w	ip, [r3, #16]
 8000e76:	611d      	str	r5, [r3, #16]
 8000e78:	f8c4 b00c 	str.w	fp, [r4, #12]
 8000e7c:	ea4f 2b29 	mov.w	fp, r9, asr #8
 8000e80:	6118      	str	r0, [r3, #16]
 8000e82:	6119      	str	r1, [r3, #16]
 8000e84:	611a      	str	r2, [r3, #16]
 8000e86:	611e      	str	r6, [r3, #16]
 8000e88:	611d      	str	r5, [r3, #16]
 8000e8a:	f8c4 b00c 	str.w	fp, [r4, #12]
 8000e8e:	6118      	str	r0, [r3, #16]
 8000e90:	6119      	str	r1, [r3, #16]
 8000e92:	611a      	str	r2, [r3, #16]
 8000e94:	f8c3 c010 	str.w	ip, [r3, #16]
 8000e98:	611d      	str	r5, [r3, #16]
 8000e9a:	f8c4 e00c 	str.w	lr, [r4, #12]
 8000e9e:	f107 0e01 	add.w	lr, r7, #1
 8000ea2:	fa1f fe8e 	uxth.w	lr, lr
 8000ea6:	fa5f f989 	uxtb.w	r9, r9
 8000eaa:	6118      	str	r0, [r3, #16]
 8000eac:	6119      	str	r1, [r3, #16]
 8000eae:	611a      	str	r2, [r3, #16]
 8000eb0:	611e      	str	r6, [r3, #16]
 8000eb2:	611d      	str	r5, [r3, #16]
 8000eb4:	f8c4 900c 	str.w	r9, [r4, #12]
 8000eb8:	6118      	str	r0, [r3, #16]
 8000eba:	6119      	str	r1, [r3, #16]
 8000ebc:	611a      	str	r2, [r3, #16]
 8000ebe:	f8c3 c010 	str.w	ip, [r3, #16]
 8000ec2:	611d      	str	r5, [r3, #16]
 8000ec4:	60e7      	str	r7, [r4, #12]
 8000ec6:	6118      	str	r0, [r3, #16]
 8000ec8:	6119      	str	r1, [r3, #16]
 8000eca:	611a      	str	r2, [r3, #16]
 8000ecc:	611e      	str	r6, [r3, #16]
 8000ece:	611d      	str	r5, [r3, #16]
 8000ed0:	f8c4 a00c 	str.w	sl, [r4, #12]
 8000ed4:	6118      	str	r0, [r3, #16]
 8000ed6:	6119      	str	r1, [r3, #16]
 8000ed8:	611a      	str	r2, [r3, #16]
 8000eda:	f8c3 c010 	str.w	ip, [r3, #16]
 8000ede:	611d      	str	r5, [r3, #16]
 8000ee0:	f8c4 e00c 	str.w	lr, [r4, #12]
 8000ee4:	f107 0e02 	add.w	lr, r7, #2
 8000ee8:	f108 38ff 	add.w	r8, r8, #4294967295
 8000eec:	fa1f fe8e 	uxth.w	lr, lr
 8000ef0:	3703      	adds	r7, #3
 8000ef2:	6118      	str	r0, [r3, #16]
 8000ef4:	b2bf      	uxth	r7, r7
 8000ef6:	6119      	str	r1, [r3, #16]
 8000ef8:	611a      	str	r2, [r3, #16]
 8000efa:	611e      	str	r6, [r3, #16]
 8000efc:	611d      	str	r5, [r3, #16]
 8000efe:	f8c4 a00c 	str.w	sl, [r4, #12]
 8000f02:	6118      	str	r0, [r3, #16]
 8000f04:	6119      	str	r1, [r3, #16]
 8000f06:	611a      	str	r2, [r3, #16]
 8000f08:	f8c3 c010 	str.w	ip, [r3, #16]
 8000f0c:	611d      	str	r5, [r3, #16]
 8000f0e:	f8c4 e00c 	str.w	lr, [r4, #12]
 8000f12:	ea4f 2e28 	mov.w	lr, r8, asr #8
 8000f16:	6118      	str	r0, [r3, #16]
 8000f18:	6119      	str	r1, [r3, #16]
 8000f1a:	611a      	str	r2, [r3, #16]
 8000f1c:	611e      	str	r6, [r3, #16]
 8000f1e:	611d      	str	r5, [r3, #16]
 8000f20:	f8c4 e00c 	str.w	lr, [r4, #12]
 8000f24:	6118      	str	r0, [r3, #16]
 8000f26:	6119      	str	r1, [r3, #16]
 8000f28:	611a      	str	r2, [r3, #16]
 8000f2a:	f8c3 c010 	str.w	ip, [r3, #16]
 8000f2e:	611d      	str	r5, [r3, #16]
 8000f30:	60e7      	str	r7, [r4, #12]
 8000f32:	6118      	str	r0, [r3, #16]
 8000f34:	6119      	str	r1, [r3, #16]
 8000f36:	611a      	str	r2, [r3, #16]
 8000f38:	611e      	str	r6, [r3, #16]
 8000f3a:	611d      	str	r5, [r3, #16]
 8000f3c:	fa5f f588 	uxtb.w	r5, r8
 8000f40:	60e5      	str	r5, [r4, #12]
 8000f42:	6118      	str	r0, [r3, #16]
 8000f44:	6119      	str	r1, [r3, #16]
 8000f46:	611a      	str	r2, [r3, #16]
 8000f48:	e8bd 8ff8 	ldmia.w	sp!, {r3, r4, r5, r6, r7, r8, r9, sl, fp, pc}
 8000f4c:	2000002c 	.word	0x2000002c
 8000f50:	40011000 	.word	0x40011000
 8000f54:	40010c00 	.word	0x40010c00
 8000f58:	f04f 7600 	mov.w	r6, #33554432	@ 0x2000000
 8000f5c:	f04f 7880 	mov.w	r8, #16777216	@ 0x1000000
 8000f60:	8962      	ldrh	r2, [r4, #10]
 8000f62:	4d34      	ldr	r5, [pc, #208]	@ (8001034 <lcd_scan_dir+0x338>)
 8000f64:	f8c3 8010 	str.w	r8, [r3, #16]
 8000f68:	f44f 0000 	mov.w	r0, #8388608	@ 0x800000
 8000f6c:	611e      	str	r6, [r3, #16]
 8000f6e:	2180      	movs	r1, #128	@ 0x80
 8000f70:	60ea      	str	r2, [r5, #12]
 8000f72:	f44f 7780 	mov.w	r7, #256	@ 0x100
 8000f76:	f44f 7200 	mov.w	r2, #512	@ 0x200
 8000f7a:	f04f 0e00 	mov.w	lr, #0
 8000f7e:	f8b4 c000 	ldrh.w	ip, [r4]
 8000f82:	6118      	str	r0, [r3, #16]
 8000f84:	f10c 3cff 	add.w	ip, ip, #4294967295
 8000f88:	ea4f 292c 	mov.w	r9, ip, asr #8
 8000f8c:	fa5f fc8c 	uxtb.w	ip, ip
 8000f90:	6119      	str	r1, [r3, #16]
 8000f92:	611a      	str	r2, [r3, #16]
 8000f94:	611f      	str	r7, [r3, #16]
 8000f96:	611e      	str	r6, [r3, #16]
 8000f98:	f8c5 e00c 	str.w	lr, [r5, #12]
 8000f9c:	6118      	str	r0, [r3, #16]
 8000f9e:	6119      	str	r1, [r3, #16]
 8000fa0:	611a      	str	r2, [r3, #16]
 8000fa2:	611f      	str	r7, [r3, #16]
 8000fa4:	611e      	str	r6, [r3, #16]
 8000fa6:	f8c5 e00c 	str.w	lr, [r5, #12]
 8000faa:	6118      	str	r0, [r3, #16]
 8000fac:	6119      	str	r1, [r3, #16]
 8000fae:	611a      	str	r2, [r3, #16]
 8000fb0:	611f      	str	r7, [r3, #16]
 8000fb2:	611e      	str	r6, [r3, #16]
 8000fb4:	f8c5 900c 	str.w	r9, [r5, #12]
 8000fb8:	6118      	str	r0, [r3, #16]
 8000fba:	6119      	str	r1, [r3, #16]
 8000fbc:	611a      	str	r2, [r3, #16]
 8000fbe:	611f      	str	r7, [r3, #16]
 8000fc0:	611e      	str	r6, [r3, #16]
 8000fc2:	f8c5 c00c 	str.w	ip, [r5, #12]
 8000fc6:	6118      	str	r0, [r3, #16]
 8000fc8:	6119      	str	r1, [r3, #16]
 8000fca:	611a      	str	r2, [r3, #16]
 8000fcc:	f8b4 c00c 	ldrh.w	ip, [r4, #12]
 8000fd0:	8864      	ldrh	r4, [r4, #2]
 8000fd2:	f8c3 8010 	str.w	r8, [r3, #16]
 8000fd6:	3c01      	subs	r4, #1
 8000fd8:	611e      	str	r6, [r3, #16]
 8000fda:	f8c5 c00c 	str.w	ip, [r5, #12]
 8000fde:	ea4f 2c24 	mov.w	ip, r4, asr #8
 8000fe2:	b2e4      	uxtb	r4, r4
 8000fe4:	6118      	str	r0, [r3, #16]
 8000fe6:	6119      	str	r1, [r3, #16]
 8000fe8:	611a      	str	r2, [r3, #16]
 8000fea:	611f      	str	r7, [r3, #16]
 8000fec:	611e      	str	r6, [r3, #16]
 8000fee:	f8c5 e00c 	str.w	lr, [r5, #12]
 8000ff2:	6118      	str	r0, [r3, #16]
 8000ff4:	6119      	str	r1, [r3, #16]
 8000ff6:	611a      	str	r2, [r3, #16]
 8000ff8:	611f      	str	r7, [r3, #16]
 8000ffa:	611e      	str	r6, [r3, #16]
 8000ffc:	f8c5 e00c 	str.w	lr, [r5, #12]
 8001000:	6118      	str	r0, [r3, #16]
 8001002:	6119      	str	r1, [r3, #16]
 8001004:	611a      	str	r2, [r3, #16]
 8001006:	611f      	str	r7, [r3, #16]
 8001008:	611e      	str	r6, [r3, #16]
 800100a:	f8c5 c00c 	str.w	ip, [r5, #12]
 800100e:	6118      	str	r0, [r3, #16]
 8001010:	6119      	str	r1, [r3, #16]
 8001012:	611a      	str	r2, [r3, #16]
 8001014:	611f      	str	r7, [r3, #16]
 8001016:	611e      	str	r6, [r3, #16]
 8001018:	60ec      	str	r4, [r5, #12]
 800101a:	e792      	b.n	8000f42 <lcd_scan_dir+0x246>
 800101c:	2100      	movs	r1, #0
 800101e:	e6cd      	b.n	8000dbc <lcd_scan_dir+0xc0>
 8001020:	21c0      	movs	r1, #192	@ 0xc0
 8001022:	e6cb      	b.n	8000dbc <lcd_scan_dir+0xc0>
 8001024:	2140      	movs	r1, #64	@ 0x40
 8001026:	e6c9      	b.n	8000dbc <lcd_scan_dir+0xc0>
 8001028:	2180      	movs	r1, #128	@ 0x80
 800102a:	e6c7      	b.n	8000dbc <lcd_scan_dir+0xc0>
 800102c:	2120      	movs	r1, #32
 800102e:	e6c5      	b.n	8000dbc <lcd_scan_dir+0xc0>
 8001030:	2160      	movs	r1, #96	@ 0x60
 8001032:	e6c3      	b.n	8000dbc <lcd_scan_dir+0xc0>
 8001034:	40010c00 	.word	0x40010c00

08001038 <lcd_draw_point>:
 8001038:	b5f8      	push	{r3, r4, r5, r6, r7, lr}
 800103a:	4614      	mov	r4, r2
 800103c:	f04f 7600 	mov.w	r6, #33554432	@ 0x2000000
 8001040:	f7ff fcee 	bl	8000a20 <lcd_set_cursor>
 8001044:	f04f 7180 	mov.w	r1, #16777216	@ 0x1000000
 8001048:	4b0b      	ldr	r3, [pc, #44]	@ (8001078 <lcd_draw_point+0x40>)
 800104a:	4d0c      	ldr	r5, [pc, #48]	@ (800107c <lcd_draw_point+0x44>)
 800104c:	891a      	ldrh	r2, [r3, #8]
 800104e:	4b0c      	ldr	r3, [pc, #48]	@ (8001080 <lcd_draw_point+0x48>)
 8001050:	f44f 0000 	mov.w	r0, #8388608	@ 0x800000
 8001054:	6119      	str	r1, [r3, #16]
 8001056:	f44f 7780 	mov.w	r7, #256	@ 0x100
 800105a:	611e      	str	r6, [r3, #16]
 800105c:	2180      	movs	r1, #128	@ 0x80
 800105e:	60ea      	str	r2, [r5, #12]
 8001060:	f44f 7200 	mov.w	r2, #512	@ 0x200
 8001064:	6118      	str	r0, [r3, #16]
 8001066:	6119      	str	r1, [r3, #16]
 8001068:	611a      	str	r2, [r3, #16]
 800106a:	611f      	str	r7, [r3, #16]
 800106c:	611e      	str	r6, [r3, #16]
 800106e:	60ec      	str	r4, [r5, #12]
 8001070:	6118      	str	r0, [r3, #16]
 8001072:	6119      	str	r1, [r3, #16]
 8001074:	611a      	str	r2, [r3, #16]
 8001076:	bdf8      	pop	{r3, r4, r5, r6, r7, pc}
 8001078:	2000002c 	.word	0x2000002c
 800107c:	40010c00 	.word	0x40010c00
 8001080:	40011000 	.word	0x40011000
 8001084:	00000000 	.word	0x00000000

08001088 <lcd_ssd_backlight_set>:
 8001088:	f04f 7380 	mov.w	r3, #16777216	@ 0x1000000
 800108c:	e92d 47f0 	stmdb	sp!, {r4, r5, r6, r7, r8, r9, sl, lr}
 8001090:	4c2f      	ldr	r4, [pc, #188]	@ (8001150 <lcd_ssd_backlight_set+0xc8>)
 8001092:	f04f 7900 	mov.w	r9, #33554432	@ 0x2000000
 8001096:	6123      	str	r3, [r4, #16]
 8001098:	23be      	movs	r3, #190	@ 0xbe
 800109a:	f8df 80b8 	ldr.w	r8, [pc, #184]	@ 8001154 <lcd_ssd_backlight_set+0xcc>
 800109e:	f8c4 9010 	str.w	r9, [r4, #16]
 80010a2:	f44f 0700 	mov.w	r7, #8388608	@ 0x800000
 80010a6:	f8c8 300c 	str.w	r3, [r8, #12]
 80010aa:	2680      	movs	r6, #128	@ 0x80
 80010ac:	f44f 7500 	mov.w	r5, #512	@ 0x200
 80010b0:	f44f 7a80 	mov.w	sl, #256	@ 0x100
 80010b4:	2305      	movs	r3, #5
 80010b6:	6127      	str	r7, [r4, #16]
 80010b8:	6126      	str	r6, [r4, #16]
 80010ba:	6125      	str	r5, [r4, #16]
 80010bc:	f8c4 a010 	str.w	sl, [r4, #16]
 80010c0:	f8c4 9010 	str.w	r9, [r4, #16]
 80010c4:	f8c8 300c 	str.w	r3, [r8, #12]
 80010c8:	6127      	str	r7, [r4, #16]
 80010ca:	6126      	str	r6, [r4, #16]
 80010cc:	6125      	str	r5, [r4, #16]
 80010ce:	f8c4 a010 	str.w	sl, [r4, #16]
 80010d2:	f8c4 9010 	str.w	r9, [r4, #16]
 80010d6:	f7ff fb23 	bl	8000720 <__aeabi_i2d>
 80010da:	a31b      	add	r3, pc, #108	@ (adr r3, 8001148 <lcd_ssd_backlight_set+0xc0>)
 80010dc:	e9d3 2300 	ldrd	r2, r3, [r3]
 80010e0:	f7ff f8a2 	bl	8000228 <__aeabi_dmul>
 80010e4:	f7ff fb86 	bl	80007f4 <__aeabi_d2uiz>
 80010e8:	2301      	movs	r3, #1
 80010ea:	f8c8 000c 	str.w	r0, [r8, #12]
 80010ee:	6127      	str	r7, [r4, #16]
 80010f0:	6126      	str	r6, [r4, #16]
 80010f2:	6125      	str	r5, [r4, #16]
 80010f4:	f8c4 a010 	str.w	sl, [r4, #16]
 80010f8:	f8c4 9010 	str.w	r9, [r4, #16]
 80010fc:	f8c8 300c 	str.w	r3, [r8, #12]
 8001100:	23ff      	movs	r3, #255	@ 0xff
 8001102:	6127      	str	r7, [r4, #16]
 8001104:	6126      	str	r6, [r4, #16]
 8001106:	6125      	str	r5, [r4, #16]
 8001108:	f8c4 a010 	str.w	sl, [r4, #16]
 800110c:	f8c4 9010 	str.w	r9, [r4, #16]
 8001110:	f8c8 300c 	str.w	r3, [r8, #12]
 8001114:	2300      	movs	r3, #0
 8001116:	6127      	str	r7, [r4, #16]
 8001118:	6126      	str	r6, [r4, #16]
 800111a:	6125      	str	r5, [r4, #16]
 800111c:	f8c4 a010 	str.w	sl, [r4, #16]
 8001120:	f8c4 9010 	str.w	r9, [r4, #16]
 8001124:	f8c8 300c 	str.w	r3, [r8, #12]
 8001128:	6127      	str	r7, [r4, #16]
 800112a:	6126      	str	r6, [r4, #16]
 800112c:	6125      	str	r5, [r4, #16]
 800112e:	f8c4 a010 	str.w	sl, [r4, #16]
 8001132:	f8c4 9010 	str.w	r9, [r4, #16]
 8001136:	f8c8 300c 	str.w	r3, [r8, #12]
 800113a:	6127      	str	r7, [r4, #16]
 800113c:	6126      	str	r6, [r4, #16]
 800113e:	6125      	str	r5, [r4, #16]
 8001140:	e8bd 87f0 	ldmia.w	sp!, {r4, r5, r6, r7, r8, r9, sl, pc}
 8001144:	f3af 8000 	nop.w
 8001148:	66666666 	.word	0x66666666
 800114c:	40046666 	.word	0x40046666
 8001150:	40011000 	.word	0x40011000
 8001154:	40010c00 	.word	0x40010c00

08001158 <lcd_display_dir>:
 8001158:	4b3e      	ldr	r3, [pc, #248]	@ (8001254 <lcd_display_dir+0xfc>)
 800115a:	b410      	push	{r4}
 800115c:	21f0      	movs	r1, #240	@ 0xf0
 800115e:	f44f 74a0 	mov.w	r4, #320	@ 0x140
 8001162:	889a      	ldrh	r2, [r3, #4]
 8001164:	7198      	strb	r0, [r3, #6]
 8001166:	bb48      	cbnz	r0, 80011bc <lcd_display_dir+0x64>
 8001168:	8019      	strh	r1, [r3, #0]
 800116a:	f245 5110 	movw	r1, #21776	@ 0x5510
 800116e:	428a      	cmp	r2, r1
 8001170:	805c      	strh	r4, [r3, #2]
 8001172:	d061      	beq.n	8001238 <lcd_display_dir+0xe0>
 8001174:	f641 1163 	movw	r1, #6499	@ 0x1963
 8001178:	428a      	cmp	r2, r1
 800117a:	f04f 002c 	mov.w	r0, #44	@ 0x2c
 800117e:	f04f 012a 	mov.w	r1, #42	@ 0x2a
 8001182:	d063      	beq.n	800124c <lcd_display_dir+0xf4>
 8001184:	8159      	strh	r1, [r3, #10]
 8001186:	212b      	movs	r1, #43	@ 0x2b
 8001188:	8199      	strh	r1, [r3, #12]
 800118a:	f245 3110 	movw	r1, #21264	@ 0x5310
 800118e:	428a      	cmp	r2, r1
 8001190:	8118      	strh	r0, [r3, #8]
 8001192:	d003      	beq.n	800119c <lcd_display_dir+0x44>
 8001194:	f247 7196 	movw	r1, #30614	@ 0x7796
 8001198:	428a      	cmp	r2, r1
 800119a:	d105      	bne.n	80011a8 <lcd_display_dir+0x50>
 800119c:	f44f 71a0 	mov.w	r1, #320	@ 0x140
 80011a0:	8019      	strh	r1, [r3, #0]
 80011a2:	f44f 71f0 	mov.w	r1, #480	@ 0x1e0
 80011a6:	8059      	strh	r1, [r3, #2]
 80011a8:	f649 0106 	movw	r1, #38918	@ 0x9806
 80011ac:	428a      	cmp	r2, r1
 80011ae:	d11a      	bne.n	80011e6 <lcd_display_dir+0x8e>
 80011b0:	f44f 72f0 	mov.w	r2, #480	@ 0x1e0
 80011b4:	801a      	strh	r2, [r3, #0]
 80011b6:	f44f 7248 	mov.w	r2, #800	@ 0x320
 80011ba:	e013      	b.n	80011e4 <lcd_display_dir+0x8c>
 80011bc:	8059      	strh	r1, [r3, #2]
 80011be:	f245 5110 	movw	r1, #21776	@ 0x5510
 80011c2:	428a      	cmp	r2, r1
 80011c4:	801c      	strh	r4, [r3, #0]
 80011c6:	d112      	bne.n	80011ee <lcd_display_dir+0x96>
 80011c8:	f44f 5230 	mov.w	r2, #11264	@ 0x2c00
 80011cc:	811a      	strh	r2, [r3, #8]
 80011ce:	f44f 5228 	mov.w	r2, #10752	@ 0x2a00
 80011d2:	815a      	strh	r2, [r3, #10]
 80011d4:	f44f 522c 	mov.w	r2, #11008	@ 0x2b00
 80011d8:	819a      	strh	r2, [r3, #12]
 80011da:	f44f 7248 	mov.w	r2, #800	@ 0x320
 80011de:	801a      	strh	r2, [r3, #0]
 80011e0:	f44f 72f0 	mov.w	r2, #480	@ 0x1e0
 80011e4:	805a      	strh	r2, [r3, #2]
 80011e6:	2000      	movs	r0, #0
 80011e8:	bc10      	pop	{r4}
 80011ea:	f7ff bd87 	b.w	8000cfc <lcd_scan_dir>
 80011ee:	f641 1163 	movw	r1, #6499	@ 0x1963
 80011f2:	428a      	cmp	r2, r1
 80011f4:	f04f 012c 	mov.w	r1, #44	@ 0x2c
 80011f8:	8119      	strh	r1, [r3, #8]
 80011fa:	f04f 012a 	mov.w	r1, #42	@ 0x2a
 80011fe:	8159      	strh	r1, [r3, #10]
 8001200:	f04f 012b 	mov.w	r1, #43	@ 0x2b
 8001204:	8199      	strh	r1, [r3, #12]
 8001206:	d003      	beq.n	8001210 <lcd_display_dir+0xb8>
 8001208:	f649 0106 	movw	r1, #38918	@ 0x9806
 800120c:	428a      	cmp	r2, r1
 800120e:	d105      	bne.n	800121c <lcd_display_dir+0xc4>
 8001210:	f44f 7148 	mov.w	r1, #800	@ 0x320
 8001214:	8019      	strh	r1, [r3, #0]
 8001216:	f44f 71f0 	mov.w	r1, #480	@ 0x1e0
 800121a:	8059      	strh	r1, [r3, #2]
 800121c:	f245 3110 	movw	r1, #21264	@ 0x5310
 8001220:	428a      	cmp	r2, r1
 8001222:	d003      	beq.n	800122c <lcd_display_dir+0xd4>
 8001224:	f247 7196 	movw	r1, #30614	@ 0x7796
 8001228:	428a      	cmp	r2, r1
 800122a:	d1dc      	bne.n	80011e6 <lcd_display_dir+0x8e>
 800122c:	f44f 72f0 	mov.w	r2, #480	@ 0x1e0
 8001230:	801a      	strh	r2, [r3, #0]
 8001232:	f44f 72a0 	mov.w	r2, #320	@ 0x140
 8001236:	e7d5      	b.n	80011e4 <lcd_display_dir+0x8c>
 8001238:	f44f 5030 	mov.w	r0, #11264	@ 0x2c00
 800123c:	f44f 5428 	mov.w	r4, #10752	@ 0x2a00
 8001240:	f44f 522c 	mov.w	r2, #11008	@ 0x2b00
 8001244:	8118      	strh	r0, [r3, #8]
 8001246:	815c      	strh	r4, [r3, #10]
 8001248:	819a      	strh	r2, [r3, #12]
 800124a:	e7b1      	b.n	80011b0 <lcd_display_dir+0x58>
 800124c:	242b      	movs	r4, #43	@ 0x2b
 800124e:	460a      	mov	r2, r1
 8001250:	e7f8      	b.n	8001244 <lcd_display_dir+0xec>
 8001252:	bf00      	nop
 8001254:	2000002c 	.word	0x2000002c

08001258 <lcd_clear>:
 8001258:	2100      	movs	r1, #0
 800125a:	b5f8      	push	{r3, r4, r5, r6, r7, lr}
 800125c:	4e14      	ldr	r6, [pc, #80]	@ (80012b0 <lcd_clear+0x58>)
 800125e:	4605      	mov	r5, r0
 8001260:	8833      	ldrh	r3, [r6, #0]
 8001262:	8874      	ldrh	r4, [r6, #2]
 8001264:	4608      	mov	r0, r1
 8001266:	435c      	muls	r4, r3
 8001268:	f7ff fbda 	bl	8000a20 <lcd_set_cursor>
 800126c:	f04f 7280 	mov.w	r2, #16777216	@ 0x1000000
 8001270:	4b10      	ldr	r3, [pc, #64]	@ (80012b4 <lcd_clear+0x5c>)
 8001272:	8930      	ldrh	r0, [r6, #8]
 8001274:	611a      	str	r2, [r3, #16]
 8001276:	f04f 7200 	mov.w	r2, #33554432	@ 0x2000000
 800127a:	490f      	ldr	r1, [pc, #60]	@ (80012b8 <lcd_clear+0x60>)
 800127c:	611a      	str	r2, [r3, #16]
 800127e:	f44f 7700 	mov.w	r7, #512	@ 0x200
 8001282:	60c8      	str	r0, [r1, #12]
 8001284:	2680      	movs	r6, #128	@ 0x80
 8001286:	f44f 0000 	mov.w	r0, #8388608	@ 0x800000
 800128a:	6118      	str	r0, [r3, #16]
 800128c:	611e      	str	r6, [r3, #16]
 800128e:	611f      	str	r7, [r3, #16]
 8001290:	f44f 7780 	mov.w	r7, #256	@ 0x100
 8001294:	611f      	str	r7, [r3, #16]
 8001296:	611a      	str	r2, [r3, #16]
 8001298:	2200      	movs	r2, #0
 800129a:	42a2      	cmp	r2, r4
 800129c:	d103      	bne.n	80012a6 <lcd_clear+0x4e>
 800129e:	f44f 7200 	mov.w	r2, #512	@ 0x200
 80012a2:	611a      	str	r2, [r3, #16]
 80012a4:	bdf8      	pop	{r3, r4, r5, r6, r7, pc}
 80012a6:	60cd      	str	r5, [r1, #12]
 80012a8:	3201      	adds	r2, #1
 80012aa:	6118      	str	r0, [r3, #16]
 80012ac:	611e      	str	r6, [r3, #16]
 80012ae:	e7f4      	b.n	800129a <lcd_clear+0x42>
 80012b0:	2000002c 	.word	0x2000002c
 80012b4:	40011000 	.word	0x40011000
 80012b8:	40010c00 	.word	0x40010c00

080012bc <lcd_init>:
 80012bc:	4b6a      	ldr	r3, [pc, #424]	@ (8001468 <lcd_init+0x1ac>)
 80012be:	e92d 4ff0 	stmdb	sp!, {r4, r5, r6, r7, r8, r9, sl, fp, lr}
 80012c2:	699a      	ldr	r2, [r3, #24]
 80012c4:	b08d      	sub	sp, #52	@ 0x34
 80012c6:	f042 0210 	orr.w	r2, r2, #16
 80012ca:	619a      	str	r2, [r3, #24]
 80012cc:	699a      	ldr	r2, [r3, #24]
 80012ce:	2701      	movs	r7, #1
 80012d0:	f002 0210 	and.w	r2, r2, #16
 80012d4:	9201      	str	r2, [sp, #4]
 80012d6:	9a01      	ldr	r2, [sp, #4]
 80012d8:	699a      	ldr	r2, [r3, #24]
 80012da:	2403      	movs	r4, #3
 80012dc:	f042 0210 	orr.w	r2, r2, #16
 80012e0:	619a      	str	r2, [r3, #24]
 80012e2:	699a      	ldr	r2, [r3, #24]
 80012e4:	f8df b184 	ldr.w	fp, [pc, #388]	@ 800146c <lcd_init+0x1b0>
 80012e8:	f002 0210 	and.w	r2, r2, #16
 80012ec:	9202      	str	r2, [sp, #8]
 80012ee:	9a02      	ldr	r2, [sp, #8]
 80012f0:	699a      	ldr	r2, [r3, #24]
 80012f2:	f44f 7500 	mov.w	r5, #512	@ 0x200
 80012f6:	f042 0210 	orr.w	r2, r2, #16
 80012fa:	619a      	str	r2, [r3, #24]
 80012fc:	699a      	ldr	r2, [r3, #24]
 80012fe:	2680      	movs	r6, #128	@ 0x80
 8001300:	f002 0210 	and.w	r2, r2, #16
 8001304:	9203      	str	r2, [sp, #12]
 8001306:	9a03      	ldr	r2, [sp, #12]
 8001308:	699a      	ldr	r2, [r3, #24]
 800130a:	f04f 0940 	mov.w	r9, #64	@ 0x40
 800130e:	f042 0210 	orr.w	r2, r2, #16
 8001312:	619a      	str	r2, [r3, #24]
 8001314:	699a      	ldr	r2, [r3, #24]
 8001316:	4658      	mov	r0, fp
 8001318:	f002 0210 	and.w	r2, r2, #16
 800131c:	9204      	str	r2, [sp, #16]
 800131e:	9a04      	ldr	r2, [sp, #16]
 8001320:	699a      	ldr	r2, [r3, #24]
 8001322:	a908      	add	r1, sp, #32
 8001324:	f042 0210 	orr.w	r2, r2, #16
 8001328:	619a      	str	r2, [r3, #24]
 800132a:	699a      	ldr	r2, [r3, #24]
 800132c:	f44f 7880 	mov.w	r8, #256	@ 0x100
 8001330:	f002 0210 	and.w	r2, r2, #16
 8001334:	9205      	str	r2, [sp, #20]
 8001336:	9a05      	ldr	r2, [sp, #20]
 8001338:	699a      	ldr	r2, [r3, #24]
 800133a:	f04f 7a80 	mov.w	sl, #16777216	@ 0x1000000
 800133e:	f042 0208 	orr.w	r2, r2, #8
 8001342:	619a      	str	r2, [r3, #24]
 8001344:	699a      	ldr	r2, [r3, #24]
 8001346:	f002 0208 	and.w	r2, r2, #8
 800134a:	9206      	str	r2, [sp, #24]
 800134c:	9a06      	ldr	r2, [sp, #24]
 800134e:	699a      	ldr	r2, [r3, #24]
 8001350:	f042 0201 	orr.w	r2, r2, #1
 8001354:	619a      	str	r2, [r3, #24]
 8001356:	699b      	ldr	r3, [r3, #24]
 8001358:	4a45      	ldr	r2, [pc, #276]	@ (8001470 <lcd_init+0x1b4>)
 800135a:	f003 0301 	and.w	r3, r3, #1
 800135e:	9307      	str	r3, [sp, #28]
 8001360:	9b07      	ldr	r3, [sp, #28]
 8001362:	6853      	ldr	r3, [r2, #4]
 8001364:	f023 63e0 	bic.w	r3, r3, #117440512	@ 0x7000000
 8001368:	f043 7300 	orr.w	r3, r3, #33554432	@ 0x2000000
 800136c:	6053      	str	r3, [r2, #4]
 800136e:	f44f 6380 	mov.w	r3, #1024	@ 0x400
 8001372:	970a      	str	r7, [sp, #40]	@ 0x28
 8001374:	e9cd 3708 	strd	r3, r7, [sp, #32]
 8001378:	940b      	str	r4, [sp, #44]	@ 0x2c
 800137a:	f003 fcd7 	bl	8004d2c <HAL_GPIO_Init>
 800137e:	e9cd 740a 	strd	r7, r4, [sp, #40]	@ 0x28
 8001382:	f64f 74ff 	movw	r4, #65535	@ 0xffff
 8001386:	4658      	mov	r0, fp
 8001388:	a908      	add	r1, sp, #32
 800138a:	e9cd 5708 	strd	r5, r7, [sp, #32]
 800138e:	f003 fccd 	bl	8004d2c <HAL_GPIO_Init>
 8001392:	4658      	mov	r0, fp
 8001394:	a908      	add	r1, sp, #32
 8001396:	9608      	str	r6, [sp, #32]
 8001398:	f003 fcc8 	bl	8004d2c <HAL_GPIO_Init>
 800139c:	4658      	mov	r0, fp
 800139e:	a908      	add	r1, sp, #32
 80013a0:	f8cd 9020 	str.w	r9, [sp, #32]
 80013a4:	f003 fcc2 	bl	8004d2c <HAL_GPIO_Init>
 80013a8:	4658      	mov	r0, fp
 80013aa:	a908      	add	r1, sp, #32
 80013ac:	f8cd 8020 	str.w	r8, [sp, #32]
 80013b0:	f003 fcbc 	bl	8004d2c <HAL_GPIO_Init>
 80013b4:	e9cd 4708 	strd	r4, r7, [sp, #32]
 80013b8:	4f2e      	ldr	r7, [pc, #184]	@ (8001474 <lcd_init+0x1b8>)
 80013ba:	a908      	add	r1, sp, #32
 80013bc:	4638      	mov	r0, r7
 80013be:	f003 fcb5 	bl	8004d2c <HAL_GPIO_Init>
 80013c2:	f8cb 6010 	str.w	r6, [fp, #16]
 80013c6:	23d3      	movs	r3, #211	@ 0xd3
 80013c8:	f8cb 9010 	str.w	r9, [fp, #16]
 80013cc:	f8cb 5010 	str.w	r5, [fp, #16]
 80013d0:	f04f 7900 	mov.w	r9, #33554432	@ 0x2000000
 80013d4:	f8cb 8010 	str.w	r8, [fp, #16]
 80013d8:	f44f 0800 	mov.w	r8, #8388608	@ 0x800000
 80013dc:	60fc      	str	r4, [r7, #12]
 80013de:	f8cb a010 	str.w	sl, [fp, #16]
 80013e2:	f8cb 9010 	str.w	r9, [fp, #16]
 80013e6:	60fb      	str	r3, [r7, #12]
 80013e8:	f8cb 8010 	str.w	r8, [fp, #16]
 80013ec:	f8cb 6010 	str.w	r6, [fp, #16]
 80013f0:	f8cb 5010 	str.w	r5, [fp, #16]
 80013f4:	f7ff faaa 	bl	800094c <lcd_rd_data>
 80013f8:	4c1f      	ldr	r4, [pc, #124]	@ (8001478 <lcd_init+0x1bc>)
 80013fa:	80a0      	strh	r0, [r4, #4]
 80013fc:	f7ff faa6 	bl	800094c <lcd_rd_data>
 8001400:	80a0      	strh	r0, [r4, #4]
 8001402:	f7ff faa3 	bl	800094c <lcd_rd_data>
 8001406:	0200      	lsls	r0, r0, #8
 8001408:	80a0      	strh	r0, [r4, #4]
 800140a:	f7ff fa9f 	bl	800094c <lcd_rd_data>
 800140e:	88a2      	ldrh	r2, [r4, #4]
 8001410:	4310      	orrs	r0, r2
 8001412:	f249 3241 	movw	r2, #37697	@ 0x9341
 8001416:	b280      	uxth	r0, r0
 8001418:	4290      	cmp	r0, r2
 800141a:	80a0      	strh	r0, [r4, #4]
 800141c:	f000 80f2 	beq.w	8001604 <lcd_init+0x348>
 8001420:	2204      	movs	r2, #4
 8001422:	f8cb a010 	str.w	sl, [fp, #16]
 8001426:	f8cb 9010 	str.w	r9, [fp, #16]
 800142a:	60fa      	str	r2, [r7, #12]
 800142c:	f8cb 8010 	str.w	r8, [fp, #16]
 8001430:	f8cb 6010 	str.w	r6, [fp, #16]
 8001434:	f8cb 5010 	str.w	r5, [fp, #16]
 8001438:	f7ff fa88 	bl	800094c <lcd_rd_data>
 800143c:	80a0      	strh	r0, [r4, #4]
 800143e:	f7ff fa85 	bl	800094c <lcd_rd_data>
 8001442:	80a0      	strh	r0, [r4, #4]
 8001444:	f7ff fa82 	bl	800094c <lcd_rd_data>
 8001448:	0200      	lsls	r0, r0, #8
 800144a:	80a0      	strh	r0, [r4, #4]
 800144c:	f7ff fa7e 	bl	800094c <lcd_rd_data>
 8001450:	88a2      	ldrh	r2, [r4, #4]
 8001452:	4310      	orrs	r0, r2
 8001454:	f248 5252 	movw	r2, #34130	@ 0x8552
 8001458:	b280      	uxth	r0, r0
 800145a:	4290      	cmp	r0, r2
 800145c:	f247 7289 	movw	r2, #30601	@ 0x7789
 8001460:	d10c      	bne.n	800147c <lcd_init+0x1c0>
 8001462:	80a2      	strh	r2, [r4, #4]
 8001464:	e0ce      	b.n	8001604 <lcd_init+0x348>
 8001466:	bf00      	nop
 8001468:	40021000 	.word	0x40021000
 800146c:	40011000 	.word	0x40011000
 8001470:	40010000 	.word	0x40010000
 8001474:	40010c00 	.word	0x40010c00
 8001478:	2000002c 	.word	0x2000002c
 800147c:	4290      	cmp	r0, r2
 800147e:	80a0      	strh	r0, [r4, #4]
 8001480:	f000 80c0 	beq.w	8001604 <lcd_init+0x348>
 8001484:	22d4      	movs	r2, #212	@ 0xd4
 8001486:	f8cb a010 	str.w	sl, [fp, #16]
 800148a:	f8cb 9010 	str.w	r9, [fp, #16]
 800148e:	60fa      	str	r2, [r7, #12]
 8001490:	f8cb 8010 	str.w	r8, [fp, #16]
 8001494:	f8cb 6010 	str.w	r6, [fp, #16]
 8001498:	f8cb 5010 	str.w	r5, [fp, #16]
 800149c:	f7ff fa56 	bl	800094c <lcd_rd_data>
 80014a0:	80a0      	strh	r0, [r4, #4]
 80014a2:	f7ff fa53 	bl	800094c <lcd_rd_data>
 80014a6:	80a0      	strh	r0, [r4, #4]
 80014a8:	f7ff fa50 	bl	800094c <lcd_rd_data>
 80014ac:	0200      	lsls	r0, r0, #8
 80014ae:	80a0      	strh	r0, [r4, #4]
 80014b0:	f7ff fa4c 	bl	800094c <lcd_rd_data>
 80014b4:	88a2      	ldrh	r2, [r4, #4]
 80014b6:	4310      	orrs	r0, r2
 80014b8:	f245 3210 	movw	r2, #21264	@ 0x5310
 80014bc:	b280      	uxth	r0, r0
 80014be:	4290      	cmp	r0, r2
 80014c0:	80a0      	strh	r0, [r4, #4]
 80014c2:	f000 809f 	beq.w	8001604 <lcd_init+0x348>
 80014c6:	23d3      	movs	r3, #211	@ 0xd3
 80014c8:	f8cb a010 	str.w	sl, [fp, #16]
 80014cc:	f8cb 9010 	str.w	r9, [fp, #16]
 80014d0:	60fb      	str	r3, [r7, #12]
 80014d2:	f8cb 8010 	str.w	r8, [fp, #16]
 80014d6:	f8cb 6010 	str.w	r6, [fp, #16]
 80014da:	f8cb 5010 	str.w	r5, [fp, #16]
 80014de:	f7ff fa35 	bl	800094c <lcd_rd_data>
 80014e2:	80a0      	strh	r0, [r4, #4]
 80014e4:	f7ff fa32 	bl	800094c <lcd_rd_data>
 80014e8:	80a0      	strh	r0, [r4, #4]
 80014ea:	f7ff fa2f 	bl	800094c <lcd_rd_data>
 80014ee:	0200      	lsls	r0, r0, #8
 80014f0:	80a0      	strh	r0, [r4, #4]
 80014f2:	f7ff fa2b 	bl	800094c <lcd_rd_data>
 80014f6:	88a2      	ldrh	r2, [r4, #4]
 80014f8:	4310      	orrs	r0, r2
 80014fa:	f247 7296 	movw	r2, #30614	@ 0x7796
 80014fe:	b280      	uxth	r0, r0
 8001500:	4290      	cmp	r0, r2
 8001502:	80a0      	strh	r0, [r4, #4]
 8001504:	d07e      	beq.n	8001604 <lcd_init+0x348>
 8001506:	2155      	movs	r1, #85	@ 0x55
 8001508:	f44f 4070 	mov.w	r0, #61440	@ 0xf000
 800150c:	f7ff fa68 	bl	80009e0 <lcd_write_reg>
 8001510:	21aa      	movs	r1, #170	@ 0xaa
 8001512:	f24f 0001 	movw	r0, #61441	@ 0xf001
 8001516:	f7ff fa63 	bl	80009e0 <lcd_write_reg>
 800151a:	2152      	movs	r1, #82	@ 0x52
 800151c:	f24f 0002 	movw	r0, #61442	@ 0xf002
 8001520:	f7ff fa5e 	bl	80009e0 <lcd_write_reg>
 8001524:	2108      	movs	r1, #8
 8001526:	f24f 0003 	movw	r0, #61443	@ 0xf003
 800152a:	f7ff fa59 	bl	80009e0 <lcd_write_reg>
 800152e:	2101      	movs	r1, #1
 8001530:	f24f 0004 	movw	r0, #61444	@ 0xf004
 8001534:	f7ff fa54 	bl	80009e0 <lcd_write_reg>
 8001538:	f44f 4245 	mov.w	r2, #50432	@ 0xc500
 800153c:	f8cb a010 	str.w	sl, [fp, #16]
 8001540:	f8cb 9010 	str.w	r9, [fp, #16]
 8001544:	60fa      	str	r2, [r7, #12]
 8001546:	f8cb 8010 	str.w	r8, [fp, #16]
 800154a:	f8cb 6010 	str.w	r6, [fp, #16]
 800154e:	f8cb 5010 	str.w	r5, [fp, #16]
 8001552:	f7ff f9fb 	bl	800094c <lcd_rd_data>
 8001556:	f24c 5201 	movw	r2, #50433	@ 0xc501
 800155a:	0200      	lsls	r0, r0, #8
 800155c:	80a0      	strh	r0, [r4, #4]
 800155e:	f8cb a010 	str.w	sl, [fp, #16]
 8001562:	f8cb 9010 	str.w	r9, [fp, #16]
 8001566:	60fa      	str	r2, [r7, #12]
 8001568:	f8cb 8010 	str.w	r8, [fp, #16]
 800156c:	f8cb 6010 	str.w	r6, [fp, #16]
 8001570:	f8cb 5010 	str.w	r5, [fp, #16]
 8001574:	f7ff f9ea 	bl	800094c <lcd_rd_data>
 8001578:	88a2      	ldrh	r2, [r4, #4]
 800157a:	4310      	orrs	r0, r2
 800157c:	f245 5210 	movw	r2, #21776	@ 0x5510
 8001580:	b280      	uxth	r0, r0
 8001582:	4290      	cmp	r0, r2
 8001584:	80a0      	strh	r0, [r4, #4]
 8001586:	d03d      	beq.n	8001604 <lcd_init+0x348>
 8001588:	23d3      	movs	r3, #211	@ 0xd3
 800158a:	f8cb a010 	str.w	sl, [fp, #16]
 800158e:	f8cb 9010 	str.w	r9, [fp, #16]
 8001592:	60fb      	str	r3, [r7, #12]
 8001594:	f8cb 8010 	str.w	r8, [fp, #16]
 8001598:	f8cb 6010 	str.w	r6, [fp, #16]
 800159c:	f8cb 5010 	str.w	r5, [fp, #16]
 80015a0:	f7ff f9d4 	bl	800094c <lcd_rd_data>
 80015a4:	80a0      	strh	r0, [r4, #4]
 80015a6:	f7ff f9d1 	bl	800094c <lcd_rd_data>
 80015aa:	80a0      	strh	r0, [r4, #4]
 80015ac:	f7ff f9ce 	bl	800094c <lcd_rd_data>
 80015b0:	0200      	lsls	r0, r0, #8
 80015b2:	80a0      	strh	r0, [r4, #4]
 80015b4:	f7ff f9ca 	bl	800094c <lcd_rd_data>
 80015b8:	88a2      	ldrh	r2, [r4, #4]
 80015ba:	4310      	orrs	r0, r2
 80015bc:	f649 0206 	movw	r2, #38918	@ 0x9806
 80015c0:	b280      	uxth	r0, r0
 80015c2:	4290      	cmp	r0, r2
 80015c4:	80a0      	strh	r0, [r4, #4]
 80015c6:	d01d      	beq.n	8001604 <lcd_init+0x348>
 80015c8:	22a1      	movs	r2, #161	@ 0xa1
 80015ca:	f8cb a010 	str.w	sl, [fp, #16]
 80015ce:	f8cb 9010 	str.w	r9, [fp, #16]
 80015d2:	60fa      	str	r2, [r7, #12]
 80015d4:	f8cb 8010 	str.w	r8, [fp, #16]
 80015d8:	f8cb 6010 	str.w	r6, [fp, #16]
 80015dc:	f8cb 5010 	str.w	r5, [fp, #16]
 80015e0:	f7ff f9b4 	bl	800094c <lcd_rd_data>
 80015e4:	80a0      	strh	r0, [r4, #4]
 80015e6:	f7ff f9b1 	bl	800094c <lcd_rd_data>
 80015ea:	0200      	lsls	r0, r0, #8
 80015ec:	80a0      	strh	r0, [r4, #4]
 80015ee:	f7ff f9ad 	bl	800094c <lcd_rd_data>
 80015f2:	88a2      	ldrh	r2, [r4, #4]
 80015f4:	4310      	orrs	r0, r2
 80015f6:	f245 7261 	movw	r2, #22369	@ 0x5761
 80015fa:	b280      	uxth	r0, r0
 80015fc:	4290      	cmp	r0, r2
 80015fe:	f000 8185 	beq.w	800190c <lcd_init+0x650>
 8001602:	80a0      	strh	r0, [r4, #4]
 8001604:	f247 7189 	movw	r1, #30601	@ 0x7789
 8001608:	88a2      	ldrh	r2, [r4, #4]
 800160a:	428a      	cmp	r2, r1
 800160c:	f040 8184 	bne.w	8001918 <lcd_init+0x65c>
 8001610:	f04f 7980 	mov.w	r9, #16777216	@ 0x1000000
 8001614:	f04f 7800 	mov.w	r8, #33554432	@ 0x2000000
 8001618:	f44f 0600 	mov.w	r6, #8388608	@ 0x800000
 800161c:	2580      	movs	r5, #128	@ 0x80
 800161e:	f44f 7400 	mov.w	r4, #512	@ 0x200
 8001622:	2211      	movs	r2, #17
 8001624:	4fbb      	ldr	r7, [pc, #748]	@ (8001914 <lcd_init+0x658>)
 8001626:	f8cb 9010 	str.w	r9, [fp, #16]
 800162a:	2078      	movs	r0, #120	@ 0x78
 800162c:	f8cb 8010 	str.w	r8, [fp, #16]
 8001630:	60fa      	str	r2, [r7, #12]
 8001632:	f8cb 6010 	str.w	r6, [fp, #16]
 8001636:	f8cb 5010 	str.w	r5, [fp, #16]
 800163a:	f8cb 4010 	str.w	r4, [fp, #16]
 800163e:	f003 faff 	bl	8004c40 <HAL_Delay>
 8001642:	2236      	movs	r2, #54	@ 0x36
 8001644:	f8cb 9010 	str.w	r9, [fp, #16]
 8001648:	2000      	movs	r0, #0
 800164a:	f8cb 8010 	str.w	r8, [fp, #16]
 800164e:	60fa      	str	r2, [r7, #12]
 8001650:	f8cb 6010 	str.w	r6, [fp, #16]
 8001654:	f8cb 5010 	str.w	r5, [fp, #16]
 8001658:	f8cb 4010 	str.w	r4, [fp, #16]
 800165c:	f7ff f9aa 	bl	80009b4 <lcd_wr_xdata>
 8001660:	223a      	movs	r2, #58	@ 0x3a
 8001662:	f8cb 9010 	str.w	r9, [fp, #16]
 8001666:	2005      	movs	r0, #5
 8001668:	f8cb 8010 	str.w	r8, [fp, #16]
 800166c:	60fa      	str	r2, [r7, #12]
 800166e:	f8cb 6010 	str.w	r6, [fp, #16]
 8001672:	f8cb 5010 	str.w	r5, [fp, #16]
 8001676:	f8cb 4010 	str.w	r4, [fp, #16]
 800167a:	f7ff f99b 	bl	80009b4 <lcd_wr_xdata>
 800167e:	22b2      	movs	r2, #178	@ 0xb2
 8001680:	f8cb 9010 	str.w	r9, [fp, #16]
 8001684:	200c      	movs	r0, #12
 8001686:	f8cb 8010 	str.w	r8, [fp, #16]
 800168a:	60fa      	str	r2, [r7, #12]
 800168c:	f8cb 6010 	str.w	r6, [fp, #16]
 8001690:	f8cb 5010 	str.w	r5, [fp, #16]
 8001694:	f8cb 4010 	str.w	r4, [fp, #16]
 8001698:	f7ff f98c 	bl	80009b4 <lcd_wr_xdata>
 800169c:	f7ff f98a 	bl	80009b4 <lcd_wr_xdata>
 80016a0:	2000      	movs	r0, #0
 80016a2:	f7ff f987 	bl	80009b4 <lcd_wr_xdata>
 80016a6:	2033      	movs	r0, #51	@ 0x33
 80016a8:	f7ff f984 	bl	80009b4 <lcd_wr_xdata>
 80016ac:	f7ff f982 	bl	80009b4 <lcd_wr_xdata>
 80016b0:	22b7      	movs	r2, #183	@ 0xb7
 80016b2:	f8cb 9010 	str.w	r9, [fp, #16]
 80016b6:	2035      	movs	r0, #53	@ 0x35
 80016b8:	f8cb 8010 	str.w	r8, [fp, #16]
 80016bc:	60fa      	str	r2, [r7, #12]
 80016be:	f8cb 6010 	str.w	r6, [fp, #16]
 80016c2:	f8cb 5010 	str.w	r5, [fp, #16]
 80016c6:	f8cb 4010 	str.w	r4, [fp, #16]
 80016ca:	f7ff f973 	bl	80009b4 <lcd_wr_xdata>
 80016ce:	22bb      	movs	r2, #187	@ 0xbb
 80016d0:	f8cb 9010 	str.w	r9, [fp, #16]
 80016d4:	2032      	movs	r0, #50	@ 0x32
 80016d6:	f8cb 8010 	str.w	r8, [fp, #16]
 80016da:	60fa      	str	r2, [r7, #12]
 80016dc:	f8cb 6010 	str.w	r6, [fp, #16]
 80016e0:	f8cb 5010 	str.w	r5, [fp, #16]
 80016e4:	f8cb 4010 	str.w	r4, [fp, #16]
 80016e8:	f7ff f964 	bl	80009b4 <lcd_wr_xdata>
 80016ec:	22c0      	movs	r2, #192	@ 0xc0
 80016ee:	f8cb 9010 	str.w	r9, [fp, #16]
 80016f2:	200c      	movs	r0, #12
 80016f4:	f8cb 8010 	str.w	r8, [fp, #16]
 80016f8:	60fa      	str	r2, [r7, #12]
 80016fa:	f8cb 6010 	str.w	r6, [fp, #16]
 80016fe:	f8cb 5010 	str.w	r5, [fp, #16]
 8001702:	f8cb 4010 	str.w	r4, [fp, #16]
 8001706:	f7ff f955 	bl	80009b4 <lcd_wr_xdata>
 800170a:	22c2      	movs	r2, #194	@ 0xc2
 800170c:	f8cb 9010 	str.w	r9, [fp, #16]
 8001710:	2001      	movs	r0, #1
 8001712:	f8cb 8010 	str.w	r8, [fp, #16]
 8001716:	60fa      	str	r2, [r7, #12]
 8001718:	f8cb 6010 	str.w	r6, [fp, #16]
 800171c:	f8cb 5010 	str.w	r5, [fp, #16]
 8001720:	f8cb 4010 	str.w	r4, [fp, #16]
 8001724:	f7ff f946 	bl	80009b4 <lcd_wr_xdata>
 8001728:	22c3      	movs	r2, #195	@ 0xc3
 800172a:	f8cb 9010 	str.w	r9, [fp, #16]
 800172e:	2010      	movs	r0, #16
 8001730:	f8cb 8010 	str.w	r8, [fp, #16]
 8001734:	60fa      	str	r2, [r7, #12]
 8001736:	f8cb 6010 	str.w	r6, [fp, #16]
 800173a:	f8cb 5010 	str.w	r5, [fp, #16]
 800173e:	f8cb 4010 	str.w	r4, [fp, #16]
 8001742:	f7ff f937 	bl	80009b4 <lcd_wr_xdata>
 8001746:	22c4      	movs	r2, #196	@ 0xc4
 8001748:	f8cb 9010 	str.w	r9, [fp, #16]
 800174c:	2020      	movs	r0, #32
 800174e:	f8cb 8010 	str.w	r8, [fp, #16]
 8001752:	60fa      	str	r2, [r7, #12]
 8001754:	f8cb 6010 	str.w	r6, [fp, #16]
 8001758:	f8cb 5010 	str.w	r5, [fp, #16]
 800175c:	f8cb 4010 	str.w	r4, [fp, #16]
 8001760:	f7ff f928 	bl	80009b4 <lcd_wr_xdata>
 8001764:	22c6      	movs	r2, #198	@ 0xc6
 8001766:	21d0      	movs	r1, #208	@ 0xd0
 8001768:	f8cb 9010 	str.w	r9, [fp, #16]
 800176c:	200f      	movs	r0, #15
 800176e:	f8cb 8010 	str.w	r8, [fp, #16]
 8001772:	60fa      	str	r2, [r7, #12]
 8001774:	f8cb 6010 	str.w	r6, [fp, #16]
 8001778:	f8cb 5010 	str.w	r5, [fp, #16]
 800177c:	f8cb 4010 	str.w	r4, [fp, #16]
 8001780:	f7ff f918 	bl	80009b4 <lcd_wr_xdata>
 8001784:	f8cb 9010 	str.w	r9, [fp, #16]
 8001788:	20a4      	movs	r0, #164	@ 0xa4
 800178a:	f8cb 8010 	str.w	r8, [fp, #16]
 800178e:	60f9      	str	r1, [r7, #12]
 8001790:	f8cb 6010 	str.w	r6, [fp, #16]
 8001794:	f8cb 5010 	str.w	r5, [fp, #16]
 8001798:	f8cb 4010 	str.w	r4, [fp, #16]
 800179c:	f7ff f90a 	bl	80009b4 <lcd_wr_xdata>
 80017a0:	20a1      	movs	r0, #161	@ 0xa1
 80017a2:	f7ff f907 	bl	80009b4 <lcd_wr_xdata>
 80017a6:	22e0      	movs	r2, #224	@ 0xe0
 80017a8:	f8cb 9010 	str.w	r9, [fp, #16]
 80017ac:	4608      	mov	r0, r1
 80017ae:	f8cb 8010 	str.w	r8, [fp, #16]
 80017b2:	60fa      	str	r2, [r7, #12]
 80017b4:	f8cb 6010 	str.w	r6, [fp, #16]
 80017b8:	f8cb 5010 	str.w	r5, [fp, #16]
 80017bc:	f8cb 4010 	str.w	r4, [fp, #16]
 80017c0:	f7ff f8f8 	bl	80009b4 <lcd_wr_xdata>
 80017c4:	2000      	movs	r0, #0
 80017c6:	f7ff f8f5 	bl	80009b4 <lcd_wr_xdata>
 80017ca:	2002      	movs	r0, #2
 80017cc:	f7ff f8f2 	bl	80009b4 <lcd_wr_xdata>
 80017d0:	2007      	movs	r0, #7
 80017d2:	f7ff f8ef 	bl	80009b4 <lcd_wr_xdata>
 80017d6:	200a      	movs	r0, #10
 80017d8:	f7ff f8ec 	bl	80009b4 <lcd_wr_xdata>
 80017dc:	2028      	movs	r0, #40	@ 0x28
 80017de:	f7ff f8e9 	bl	80009b4 <lcd_wr_xdata>
 80017e2:	2032      	movs	r0, #50	@ 0x32
 80017e4:	f7ff f8e6 	bl	80009b4 <lcd_wr_xdata>
 80017e8:	2044      	movs	r0, #68	@ 0x44
 80017ea:	f7ff f8e3 	bl	80009b4 <lcd_wr_xdata>
 80017ee:	2042      	movs	r0, #66	@ 0x42
 80017f0:	f7ff f8e0 	bl	80009b4 <lcd_wr_xdata>
 80017f4:	2006      	movs	r0, #6
 80017f6:	f7ff f8dd 	bl	80009b4 <lcd_wr_xdata>
 80017fa:	200e      	movs	r0, #14
 80017fc:	f7ff f8da 	bl	80009b4 <lcd_wr_xdata>
 8001800:	2012      	movs	r0, #18
 8001802:	f7ff f8d7 	bl	80009b4 <lcd_wr_xdata>
 8001806:	2014      	movs	r0, #20
 8001808:	f7ff f8d4 	bl	80009b4 <lcd_wr_xdata>
 800180c:	2017      	movs	r0, #23
 800180e:	f7ff f8d1 	bl	80009b4 <lcd_wr_xdata>
 8001812:	22e1      	movs	r2, #225	@ 0xe1
 8001814:	f8cb 9010 	str.w	r9, [fp, #16]
 8001818:	4608      	mov	r0, r1
 800181a:	f8cb 8010 	str.w	r8, [fp, #16]
 800181e:	60fa      	str	r2, [r7, #12]
 8001820:	f8cb 6010 	str.w	r6, [fp, #16]
 8001824:	f8cb 5010 	str.w	r5, [fp, #16]
 8001828:	f8cb 4010 	str.w	r4, [fp, #16]
 800182c:	f7ff f8c2 	bl	80009b4 <lcd_wr_xdata>
 8001830:	2000      	movs	r0, #0
 8001832:	f7ff f8bf 	bl	80009b4 <lcd_wr_xdata>
 8001836:	2002      	movs	r0, #2
 8001838:	f7ff f8bc 	bl	80009b4 <lcd_wr_xdata>
 800183c:	2007      	movs	r0, #7
 800183e:	f7ff f8b9 	bl	80009b4 <lcd_wr_xdata>
 8001842:	200a      	movs	r0, #10
 8001844:	f7ff f8b6 	bl	80009b4 <lcd_wr_xdata>
 8001848:	2028      	movs	r0, #40	@ 0x28
 800184a:	f7ff f8b3 	bl	80009b4 <lcd_wr_xdata>
 800184e:	2031      	movs	r0, #49	@ 0x31
 8001850:	f7ff f8b0 	bl	80009b4 <lcd_wr_xdata>
 8001854:	2054      	movs	r0, #84	@ 0x54
 8001856:	f7ff f8ad 	bl	80009b4 <lcd_wr_xdata>
 800185a:	2047      	movs	r0, #71	@ 0x47
 800185c:	f7ff f8aa 	bl	80009b4 <lcd_wr_xdata>
 8001860:	200e      	movs	r0, #14
 8001862:	f7ff f8a7 	bl	80009b4 <lcd_wr_xdata>
 8001866:	201c      	movs	r0, #28
 8001868:	f7ff f8a4 	bl	80009b4 <lcd_wr_xdata>
 800186c:	2017      	movs	r0, #23
 800186e:	f7ff f8a1 	bl	80009b4 <lcd_wr_xdata>
 8001872:	201b      	movs	r0, #27
 8001874:	f7ff f89e 	bl	80009b4 <lcd_wr_xdata>
 8001878:	201e      	movs	r0, #30
 800187a:	f7ff f89b 	bl	80009b4 <lcd_wr_xdata>
 800187e:	222a      	movs	r2, #42	@ 0x2a
 8001880:	f8cb 9010 	str.w	r9, [fp, #16]
 8001884:	2000      	movs	r0, #0
 8001886:	f8cb 8010 	str.w	r8, [fp, #16]
 800188a:	60fa      	str	r2, [r7, #12]
 800188c:	f8cb 6010 	str.w	r6, [fp, #16]
 8001890:	f8cb 5010 	str.w	r5, [fp, #16]
 8001894:	f8cb 4010 	str.w	r4, [fp, #16]
 8001898:	f7ff f88c 	bl	80009b4 <lcd_wr_xdata>
 800189c:	f7ff f88a 	bl	80009b4 <lcd_wr_xdata>
 80018a0:	f7ff f888 	bl	80009b4 <lcd_wr_xdata>
 80018a4:	20ef      	movs	r0, #239	@ 0xef
 80018a6:	f7ff f885 	bl	80009b4 <lcd_wr_xdata>
 80018aa:	222b      	movs	r2, #43	@ 0x2b
 80018ac:	f8cb 9010 	str.w	r9, [fp, #16]
 80018b0:	2000      	movs	r0, #0
 80018b2:	f8cb 8010 	str.w	r8, [fp, #16]
 80018b6:	60fa      	str	r2, [r7, #12]
 80018b8:	f8cb 6010 	str.w	r6, [fp, #16]
 80018bc:	f8cb 5010 	str.w	r5, [fp, #16]
 80018c0:	f8cb 4010 	str.w	r4, [fp, #16]
 80018c4:	f7ff f876 	bl	80009b4 <lcd_wr_xdata>
 80018c8:	f7ff f874 	bl	80009b4 <lcd_wr_xdata>
 80018cc:	2001      	movs	r0, #1
 80018ce:	f7ff f871 	bl	80009b4 <lcd_wr_xdata>
 80018d2:	203f      	movs	r0, #63	@ 0x3f
 80018d4:	f7ff f86e 	bl	80009b4 <lcd_wr_xdata>
 80018d8:	2229      	movs	r2, #41	@ 0x29
 80018da:	f8cb 9010 	str.w	r9, [fp, #16]
 80018de:	f8cb 8010 	str.w	r8, [fp, #16]
 80018e2:	60fa      	str	r2, [r7, #12]
 80018e4:	f8cb 6010 	str.w	r6, [fp, #16]
 80018e8:	f8cb 5010 	str.w	r5, [fp, #16]
 80018ec:	f8cb 4010 	str.w	r4, [fp, #16]
 80018f0:	2000      	movs	r0, #0
 80018f2:	f7ff fc31 	bl	8001158 <lcd_display_dir>
 80018f6:	f44f 6280 	mov.w	r2, #1024	@ 0x400
 80018fa:	f64f 70ff 	movw	r0, #65535	@ 0xffff
 80018fe:	f8cb 2010 	str.w	r2, [fp, #16]
 8001902:	f7ff fca9 	bl	8001258 <lcd_clear>
 8001906:	b00d      	add	sp, #52	@ 0x34
 8001908:	e8bd 8ff0 	ldmia.w	sp!, {r4, r5, r6, r7, r8, r9, sl, fp, pc}
 800190c:	f641 1263 	movw	r2, #6499	@ 0x1963
 8001910:	e5a7      	b.n	8001462 <lcd_init+0x1a6>
 8001912:	bf00      	nop
 8001914:	40010c00 	.word	0x40010c00
 8001918:	f249 3141 	movw	r1, #37697	@ 0x9341
 800191c:	428a      	cmp	r2, r1
 800191e:	f040 81d1 	bne.w	8001cc4 <lcd_init+0xa08>
 8001922:	f04f 7980 	mov.w	r9, #16777216	@ 0x1000000
 8001926:	f04f 7800 	mov.w	r8, #33554432	@ 0x2000000
 800192a:	f44f 0600 	mov.w	r6, #8388608	@ 0x800000
 800192e:	2580      	movs	r5, #128	@ 0x80
 8001930:	f44f 7400 	mov.w	r4, #512	@ 0x200
 8001934:	22cf      	movs	r2, #207	@ 0xcf
 8001936:	4fe2      	ldr	r7, [pc, #904]	@ (8001cc0 <lcd_init+0xa04>)
 8001938:	f8cb 9010 	str.w	r9, [fp, #16]
 800193c:	2000      	movs	r0, #0
 800193e:	f8cb 8010 	str.w	r8, [fp, #16]
 8001942:	60fa      	str	r2, [r7, #12]
 8001944:	f8cb 6010 	str.w	r6, [fp, #16]
 8001948:	f8cb 5010 	str.w	r5, [fp, #16]
 800194c:	f8cb 4010 	str.w	r4, [fp, #16]
 8001950:	f7ff f830 	bl	80009b4 <lcd_wr_xdata>
 8001954:	20c1      	movs	r0, #193	@ 0xc1
 8001956:	f7ff f82d 	bl	80009b4 <lcd_wr_xdata>
 800195a:	2030      	movs	r0, #48	@ 0x30
 800195c:	f7ff f82a 	bl	80009b4 <lcd_wr_xdata>
 8001960:	22ed      	movs	r2, #237	@ 0xed
 8001962:	f8cb 9010 	str.w	r9, [fp, #16]
 8001966:	2064      	movs	r0, #100	@ 0x64
 8001968:	f8cb 8010 	str.w	r8, [fp, #16]
 800196c:	60fa      	str	r2, [r7, #12]
 800196e:	f8cb 6010 	str.w	r6, [fp, #16]
 8001972:	f8cb 5010 	str.w	r5, [fp, #16]
 8001976:	f8cb 4010 	str.w	r4, [fp, #16]
 800197a:	f7ff f81b 	bl	80009b4 <lcd_wr_xdata>
 800197e:	2003      	movs	r0, #3
 8001980:	f7ff f818 	bl	80009b4 <lcd_wr_xdata>
 8001984:	2012      	movs	r0, #18
 8001986:	f7ff f815 	bl	80009b4 <lcd_wr_xdata>
 800198a:	2081      	movs	r0, #129	@ 0x81
 800198c:	f7ff f812 	bl	80009b4 <lcd_wr_xdata>
 8001990:	22e8      	movs	r2, #232	@ 0xe8
 8001992:	f8cb 9010 	str.w	r9, [fp, #16]
 8001996:	2085      	movs	r0, #133	@ 0x85
 8001998:	f8cb 8010 	str.w	r8, [fp, #16]
 800199c:	60fa      	str	r2, [r7, #12]
 800199e:	f8cb 6010 	str.w	r6, [fp, #16]
 80019a2:	f8cb 5010 	str.w	r5, [fp, #16]
 80019a6:	f8cb 4010 	str.w	r4, [fp, #16]
 80019aa:	f7ff f803 	bl	80009b4 <lcd_wr_xdata>
 80019ae:	2010      	movs	r0, #16
 80019b0:	f7ff f800 	bl	80009b4 <lcd_wr_xdata>
 80019b4:	207a      	movs	r0, #122	@ 0x7a
 80019b6:	f7fe fffd 	bl	80009b4 <lcd_wr_xdata>
 80019ba:	22cb      	movs	r2, #203	@ 0xcb
 80019bc:	f8cb 9010 	str.w	r9, [fp, #16]
 80019c0:	2039      	movs	r0, #57	@ 0x39
 80019c2:	f8cb 8010 	str.w	r8, [fp, #16]
 80019c6:	60fa      	str	r2, [r7, #12]
 80019c8:	f8cb 6010 	str.w	r6, [fp, #16]
 80019cc:	f8cb 5010 	str.w	r5, [fp, #16]
 80019d0:	f8cb 4010 	str.w	r4, [fp, #16]
 80019d4:	f7fe ffee 	bl	80009b4 <lcd_wr_xdata>
 80019d8:	202c      	movs	r0, #44	@ 0x2c
 80019da:	f7fe ffeb 	bl	80009b4 <lcd_wr_xdata>
 80019de:	2000      	movs	r0, #0
 80019e0:	f7fe ffe8 	bl	80009b4 <lcd_wr_xdata>
 80019e4:	2034      	movs	r0, #52	@ 0x34
 80019e6:	f7fe ffe5 	bl	80009b4 <lcd_wr_xdata>
 80019ea:	2002      	movs	r0, #2
 80019ec:	f7fe ffe2 	bl	80009b4 <lcd_wr_xdata>
 80019f0:	22f7      	movs	r2, #247	@ 0xf7
 80019f2:	f8cb 9010 	str.w	r9, [fp, #16]
 80019f6:	2020      	movs	r0, #32
 80019f8:	f8cb 8010 	str.w	r8, [fp, #16]
 80019fc:	60fa      	str	r2, [r7, #12]
 80019fe:	f8cb 6010 	str.w	r6, [fp, #16]
 8001a02:	f8cb 5010 	str.w	r5, [fp, #16]
 8001a06:	f8cb 4010 	str.w	r4, [fp, #16]
 8001a0a:	f7fe ffd3 	bl	80009b4 <lcd_wr_xdata>
 8001a0e:	22ea      	movs	r2, #234	@ 0xea
 8001a10:	f8cb 9010 	str.w	r9, [fp, #16]
 8001a14:	2000      	movs	r0, #0
 8001a16:	f8cb 8010 	str.w	r8, [fp, #16]
 8001a1a:	60fa      	str	r2, [r7, #12]
 8001a1c:	f8cb 6010 	str.w	r6, [fp, #16]
 8001a20:	f8cb 5010 	str.w	r5, [fp, #16]
 8001a24:	f8cb 4010 	str.w	r4, [fp, #16]
 8001a28:	f7fe ffc4 	bl	80009b4 <lcd_wr_xdata>
 8001a2c:	f7fe ffc2 	bl	80009b4 <lcd_wr_xdata>
 8001a30:	22c0      	movs	r2, #192	@ 0xc0
 8001a32:	f8cb 9010 	str.w	r9, [fp, #16]
 8001a36:	201b      	movs	r0, #27
 8001a38:	f8cb 8010 	str.w	r8, [fp, #16]
 8001a3c:	60fa      	str	r2, [r7, #12]
 8001a3e:	f8cb 6010 	str.w	r6, [fp, #16]
 8001a42:	f8cb 5010 	str.w	r5, [fp, #16]
 8001a46:	f8cb 4010 	str.w	r4, [fp, #16]
 8001a4a:	f7fe ffb3 	bl	80009b4 <lcd_wr_xdata>
 8001a4e:	22c1      	movs	r2, #193	@ 0xc1
 8001a50:	f8cb 9010 	str.w	r9, [fp, #16]
 8001a54:	2001      	movs	r0, #1
 8001a56:	f8cb 8010 	str.w	r8, [fp, #16]
 8001a5a:	60fa      	str	r2, [r7, #12]
 8001a5c:	f8cb 6010 	str.w	r6, [fp, #16]
 8001a60:	f8cb 5010 	str.w	r5, [fp, #16]
 8001a64:	f8cb 4010 	str.w	r4, [fp, #16]
 8001a68:	f7fe ffa4 	bl	80009b4 <lcd_wr_xdata>
 8001a6c:	22c5      	movs	r2, #197	@ 0xc5
 8001a6e:	f8cb 9010 	str.w	r9, [fp, #16]
 8001a72:	2030      	movs	r0, #48	@ 0x30
 8001a74:	f8cb 8010 	str.w	r8, [fp, #16]
 8001a78:	60fa      	str	r2, [r7, #12]
 8001a7a:	f8cb 6010 	str.w	r6, [fp, #16]
 8001a7e:	f8cb 5010 	str.w	r5, [fp, #16]
 8001a82:	f8cb 4010 	str.w	r4, [fp, #16]
 8001a86:	f7fe ff95 	bl	80009b4 <lcd_wr_xdata>
 8001a8a:	f7fe ff93 	bl	80009b4 <lcd_wr_xdata>
 8001a8e:	22c7      	movs	r2, #199	@ 0xc7
 8001a90:	f8cb 9010 	str.w	r9, [fp, #16]
 8001a94:	20b7      	movs	r0, #183	@ 0xb7
 8001a96:	f8cb 8010 	str.w	r8, [fp, #16]
 8001a9a:	60fa      	str	r2, [r7, #12]
 8001a9c:	f8cb 6010 	str.w	r6, [fp, #16]
 8001aa0:	f8cb 5010 	str.w	r5, [fp, #16]
 8001aa4:	f8cb 4010 	str.w	r4, [fp, #16]
 8001aa8:	f7fe ff84 	bl	80009b4 <lcd_wr_xdata>
 8001aac:	2236      	movs	r2, #54	@ 0x36
 8001aae:	f8cb 9010 	str.w	r9, [fp, #16]
 8001ab2:	2048      	movs	r0, #72	@ 0x48
 8001ab4:	f8cb 8010 	str.w	r8, [fp, #16]
 8001ab8:	60fa      	str	r2, [r7, #12]
 8001aba:	f8cb 6010 	str.w	r6, [fp, #16]
 8001abe:	f8cb 5010 	str.w	r5, [fp, #16]
 8001ac2:	f8cb 4010 	str.w	r4, [fp, #16]
 8001ac6:	f7fe ff75 	bl	80009b4 <lcd_wr_xdata>
 8001aca:	223a      	movs	r2, #58	@ 0x3a
 8001acc:	f8cb 9010 	str.w	r9, [fp, #16]
 8001ad0:	2055      	movs	r0, #85	@ 0x55
 8001ad2:	f8cb 8010 	str.w	r8, [fp, #16]
 8001ad6:	60fa      	str	r2, [r7, #12]
 8001ad8:	f8cb 6010 	str.w	r6, [fp, #16]
 8001adc:	f8cb 5010 	str.w	r5, [fp, #16]
 8001ae0:	f8cb 4010 	str.w	r4, [fp, #16]
 8001ae4:	f7fe ff66 	bl	80009b4 <lcd_wr_xdata>
 8001ae8:	22b1      	movs	r2, #177	@ 0xb1
 8001aea:	f8cb 9010 	str.w	r9, [fp, #16]
 8001aee:	2000      	movs	r0, #0
 8001af0:	f8cb 8010 	str.w	r8, [fp, #16]
 8001af4:	60fa      	str	r2, [r7, #12]
 8001af6:	f8cb 6010 	str.w	r6, [fp, #16]
 8001afa:	f8cb 5010 	str.w	r5, [fp, #16]
 8001afe:	f8cb 4010 	str.w	r4, [fp, #16]
 8001b02:	f7fe ff57 	bl	80009b4 <lcd_wr_xdata>
 8001b06:	201a      	movs	r0, #26
 8001b08:	f7fe ff54 	bl	80009b4 <lcd_wr_xdata>
 8001b0c:	22b6      	movs	r2, #182	@ 0xb6
 8001b0e:	f8cb 9010 	str.w	r9, [fp, #16]
 8001b12:	200a      	movs	r0, #10
 8001b14:	f8cb 8010 	str.w	r8, [fp, #16]
 8001b18:	60fa      	str	r2, [r7, #12]
 8001b1a:	f8cb 6010 	str.w	r6, [fp, #16]
 8001b1e:	f8cb 5010 	str.w	r5, [fp, #16]
 8001b22:	f8cb 4010 	str.w	r4, [fp, #16]
 8001b26:	f7fe ff45 	bl	80009b4 <lcd_wr_xdata>
 8001b2a:	20a2      	movs	r0, #162	@ 0xa2
 8001b2c:	f7fe ff42 	bl	80009b4 <lcd_wr_xdata>
 8001b30:	22f2      	movs	r2, #242	@ 0xf2
 8001b32:	f8cb 9010 	str.w	r9, [fp, #16]
 8001b36:	2000      	movs	r0, #0
 8001b38:	f8cb 8010 	str.w	r8, [fp, #16]
 8001b3c:	60fa      	str	r2, [r7, #12]
 8001b3e:	f8cb 6010 	str.w	r6, [fp, #16]
 8001b42:	f8cb 5010 	str.w	r5, [fp, #16]
 8001b46:	f8cb 4010 	str.w	r4, [fp, #16]
 8001b4a:	f7fe ff33 	bl	80009b4 <lcd_wr_xdata>
 8001b4e:	2226      	movs	r2, #38	@ 0x26
 8001b50:	f8cb 9010 	str.w	r9, [fp, #16]
 8001b54:	2001      	movs	r0, #1
 8001b56:	f8cb 8010 	str.w	r8, [fp, #16]
 8001b5a:	60fa      	str	r2, [r7, #12]
 8001b5c:	f8cb 6010 	str.w	r6, [fp, #16]
 8001b60:	f8cb 5010 	str.w	r5, [fp, #16]
 8001b64:	f8cb 4010 	str.w	r4, [fp, #16]
 8001b68:	f7fe ff24 	bl	80009b4 <lcd_wr_xdata>
 8001b6c:	22e0      	movs	r2, #224	@ 0xe0
 8001b6e:	f8cb 9010 	str.w	r9, [fp, #16]
 8001b72:	200f      	movs	r0, #15
 8001b74:	f8cb 8010 	str.w	r8, [fp, #16]
 8001b78:	60fa      	str	r2, [r7, #12]
 8001b7a:	f8cb 6010 	str.w	r6, [fp, #16]
 8001b7e:	f8cb 5010 	str.w	r5, [fp, #16]
 8001b82:	f8cb 4010 	str.w	r4, [fp, #16]
 8001b86:	f7fe ff15 	bl	80009b4 <lcd_wr_xdata>
 8001b8a:	202a      	movs	r0, #42	@ 0x2a
 8001b8c:	f7fe ff12 	bl	80009b4 <lcd_wr_xdata>
 8001b90:	2028      	movs	r0, #40	@ 0x28
 8001b92:	f7fe ff0f 	bl	80009b4 <lcd_wr_xdata>
 8001b96:	2008      	movs	r0, #8
 8001b98:	f7fe ff0c 	bl	80009b4 <lcd_wr_xdata>
 8001b9c:	200e      	movs	r0, #14
 8001b9e:	f7fe ff09 	bl	80009b4 <lcd_wr_xdata>
 8001ba2:	2008      	movs	r0, #8
 8001ba4:	f7fe ff06 	bl	80009b4 <lcd_wr_xdata>
 8001ba8:	2054      	movs	r0, #84	@ 0x54
 8001baa:	f7fe ff03 	bl	80009b4 <lcd_wr_xdata>
 8001bae:	20a9      	movs	r0, #169	@ 0xa9
 8001bb0:	f7fe ff00 	bl	80009b4 <lcd_wr_xdata>
 8001bb4:	2043      	movs	r0, #67	@ 0x43
 8001bb6:	f7fe fefd 	bl	80009b4 <lcd_wr_xdata>
 8001bba:	200a      	movs	r0, #10
 8001bbc:	f7fe fefa 	bl	80009b4 <lcd_wr_xdata>
 8001bc0:	200f      	movs	r0, #15
 8001bc2:	f7fe fef7 	bl	80009b4 <lcd_wr_xdata>
 8001bc6:	2000      	movs	r0, #0
 8001bc8:	f7fe fef4 	bl	80009b4 <lcd_wr_xdata>
 8001bcc:	f7fe fef2 	bl	80009b4 <lcd_wr_xdata>
 8001bd0:	f7fe fef0 	bl	80009b4 <lcd_wr_xdata>
 8001bd4:	f7fe feee 	bl	80009b4 <lcd_wr_xdata>
 8001bd8:	22e1      	movs	r2, #225	@ 0xe1
 8001bda:	f8cb 9010 	str.w	r9, [fp, #16]
 8001bde:	f8cb 8010 	str.w	r8, [fp, #16]
 8001be2:	60fa      	str	r2, [r7, #12]
 8001be4:	f8cb 6010 	str.w	r6, [fp, #16]
 8001be8:	f8cb 5010 	str.w	r5, [fp, #16]
 8001bec:	f8cb 4010 	str.w	r4, [fp, #16]
 8001bf0:	f7fe fee0 	bl	80009b4 <lcd_wr_xdata>
 8001bf4:	2015      	movs	r0, #21
 8001bf6:	f7fe fedd 	bl	80009b4 <lcd_wr_xdata>
 8001bfa:	2017      	movs	r0, #23
 8001bfc:	f7fe feda 	bl	80009b4 <lcd_wr_xdata>
 8001c00:	2007      	movs	r0, #7
 8001c02:	f7fe fed7 	bl	80009b4 <lcd_wr_xdata>
 8001c06:	2011      	movs	r0, #17
 8001c08:	f7fe fed4 	bl	80009b4 <lcd_wr_xdata>
 8001c0c:	2006      	movs	r0, #6
 8001c0e:	f7fe fed1 	bl	80009b4 <lcd_wr_xdata>
 8001c12:	202b      	movs	r0, #43	@ 0x2b
 8001c14:	f7fe fece 	bl	80009b4 <lcd_wr_xdata>
 8001c18:	2056      	movs	r0, #86	@ 0x56
 8001c1a:	f7fe fecb 	bl	80009b4 <lcd_wr_xdata>
 8001c1e:	203c      	movs	r0, #60	@ 0x3c
 8001c20:	f7fe fec8 	bl	80009b4 <lcd_wr_xdata>
 8001c24:	2005      	movs	r0, #5
 8001c26:	f7fe fec5 	bl	80009b4 <lcd_wr_xdata>
 8001c2a:	2010      	movs	r0, #16
 8001c2c:	f7fe fec2 	bl	80009b4 <lcd_wr_xdata>
 8001c30:	200f      	movs	r0, #15
 8001c32:	f7fe febf 	bl	80009b4 <lcd_wr_xdata>
 8001c36:	203f      	movs	r0, #63	@ 0x3f
 8001c38:	f7fe febc 	bl	80009b4 <lcd_wr_xdata>
 8001c3c:	f7fe feba 	bl	80009b4 <lcd_wr_xdata>
 8001c40:	200f      	movs	r0, #15
 8001c42:	f7fe feb7 	bl	80009b4 <lcd_wr_xdata>
 8001c46:	222b      	movs	r2, #43	@ 0x2b
 8001c48:	f8cb 9010 	str.w	r9, [fp, #16]
 8001c4c:	2000      	movs	r0, #0
 8001c4e:	f8cb 8010 	str.w	r8, [fp, #16]
 8001c52:	60fa      	str	r2, [r7, #12]
 8001c54:	f8cb 6010 	str.w	r6, [fp, #16]
 8001c58:	f8cb 5010 	str.w	r5, [fp, #16]
 8001c5c:	f8cb 4010 	str.w	r4, [fp, #16]
 8001c60:	f7fe fea8 	bl	80009b4 <lcd_wr_xdata>
 8001c64:	f7fe fea6 	bl	80009b4 <lcd_wr_xdata>
 8001c68:	2001      	movs	r0, #1
 8001c6a:	f7fe fea3 	bl	80009b4 <lcd_wr_xdata>
 8001c6e:	203f      	movs	r0, #63	@ 0x3f
 8001c70:	f7fe fea0 	bl	80009b4 <lcd_wr_xdata>
 8001c74:	222a      	movs	r2, #42	@ 0x2a
 8001c76:	f8cb 9010 	str.w	r9, [fp, #16]
 8001c7a:	2000      	movs	r0, #0
 8001c7c:	f8cb 8010 	str.w	r8, [fp, #16]
 8001c80:	60fa      	str	r2, [r7, #12]
 8001c82:	f8cb 6010 	str.w	r6, [fp, #16]
 8001c86:	f8cb 5010 	str.w	r5, [fp, #16]
 8001c8a:	f8cb 4010 	str.w	r4, [fp, #16]
 8001c8e:	f7fe fe91 	bl	80009b4 <lcd_wr_xdata>
 8001c92:	f7fe fe8f 	bl	80009b4 <lcd_wr_xdata>
 8001c96:	f7fe fe8d 	bl	80009b4 <lcd_wr_xdata>
 8001c9a:	20ef      	movs	r0, #239	@ 0xef
 8001c9c:	f7fe fe8a 	bl	80009b4 <lcd_wr_xdata>
 8001ca0:	2211      	movs	r2, #17
 8001ca2:	f8cb 9010 	str.w	r9, [fp, #16]
 8001ca6:	2078      	movs	r0, #120	@ 0x78
 8001ca8:	f8cb 8010 	str.w	r8, [fp, #16]
 8001cac:	60fa      	str	r2, [r7, #12]
 8001cae:	f8cb 6010 	str.w	r6, [fp, #16]
 8001cb2:	f8cb 5010 	str.w	r5, [fp, #16]
 8001cb6:	f8cb 4010 	str.w	r4, [fp, #16]
 8001cba:	f002 ffc1 	bl	8004c40 <HAL_Delay>
 8001cbe:	e60b      	b.n	80018d8 <lcd_init+0x61c>
 8001cc0:	40010c00 	.word	0x40010c00
 8001cc4:	f245 3110 	movw	r1, #21264	@ 0x5310
 8001cc8:	428a      	cmp	r2, r1
 8001cca:	f041 80dd 	bne.w	8002e88 <lcd_init+0x1bcc>
 8001cce:	2480      	movs	r4, #128	@ 0x80
 8001cd0:	f04f 7980 	mov.w	r9, #16777216	@ 0x1000000
 8001cd4:	f04f 7800 	mov.w	r8, #33554432	@ 0x2000000
 8001cd8:	f44f 0600 	mov.w	r6, #8388608	@ 0x800000
 8001cdc:	f44f 7500 	mov.w	r5, #512	@ 0x200
 8001ce0:	22ed      	movs	r2, #237	@ 0xed
 8001ce2:	4ff5      	ldr	r7, [pc, #980]	@ (80020b8 <lcd_init+0xdfc>)
 8001ce4:	f8cb 9010 	str.w	r9, [fp, #16]
 8001ce8:	2001      	movs	r0, #1
 8001cea:	f8cb 8010 	str.w	r8, [fp, #16]
 8001cee:	60fa      	str	r2, [r7, #12]
 8001cf0:	f8cb 6010 	str.w	r6, [fp, #16]
 8001cf4:	f8cb 4010 	str.w	r4, [fp, #16]
 8001cf8:	f8cb 5010 	str.w	r5, [fp, #16]
 8001cfc:	f7fe fe5a 	bl	80009b4 <lcd_wr_xdata>
 8001d00:	20fe      	movs	r0, #254	@ 0xfe
 8001d02:	f7fe fe57 	bl	80009b4 <lcd_wr_xdata>
 8001d06:	22ee      	movs	r2, #238	@ 0xee
 8001d08:	f8cb 9010 	str.w	r9, [fp, #16]
 8001d0c:	20de      	movs	r0, #222	@ 0xde
 8001d0e:	f8cb 8010 	str.w	r8, [fp, #16]
 8001d12:	60fa      	str	r2, [r7, #12]
 8001d14:	f8cb 6010 	str.w	r6, [fp, #16]
 8001d18:	f8cb 4010 	str.w	r4, [fp, #16]
 8001d1c:	f8cb 5010 	str.w	r5, [fp, #16]
 8001d20:	f7fe fe48 	bl	80009b4 <lcd_wr_xdata>
 8001d24:	2021      	movs	r0, #33	@ 0x21
 8001d26:	f7fe fe45 	bl	80009b4 <lcd_wr_xdata>
 8001d2a:	22f1      	movs	r2, #241	@ 0xf1
 8001d2c:	f8cb 9010 	str.w	r9, [fp, #16]
 8001d30:	2001      	movs	r0, #1
 8001d32:	f8cb 8010 	str.w	r8, [fp, #16]
 8001d36:	60fa      	str	r2, [r7, #12]
 8001d38:	f8cb 6010 	str.w	r6, [fp, #16]
 8001d3c:	f8cb 4010 	str.w	r4, [fp, #16]
 8001d40:	f8cb 5010 	str.w	r5, [fp, #16]
 8001d44:	f7fe fe36 	bl	80009b4 <lcd_wr_xdata>
 8001d48:	22df      	movs	r2, #223	@ 0xdf
 8001d4a:	21c4      	movs	r1, #196	@ 0xc4
 8001d4c:	f04f 0ac6 	mov.w	sl, #198	@ 0xc6
 8001d50:	f8cb 9010 	str.w	r9, [fp, #16]
 8001d54:	2010      	movs	r0, #16
 8001d56:	f8cb 8010 	str.w	r8, [fp, #16]
 8001d5a:	60fa      	str	r2, [r7, #12]
 8001d5c:	f8cb 6010 	str.w	r6, [fp, #16]
 8001d60:	f8cb 4010 	str.w	r4, [fp, #16]
 8001d64:	f8cb 5010 	str.w	r5, [fp, #16]
 8001d68:	f7fe fe24 	bl	80009b4 <lcd_wr_xdata>
 8001d6c:	f8cb 9010 	str.w	r9, [fp, #16]
 8001d70:	208f      	movs	r0, #143	@ 0x8f
 8001d72:	f8cb 8010 	str.w	r8, [fp, #16]
 8001d76:	60f9      	str	r1, [r7, #12]
 8001d78:	f8cb 6010 	str.w	r6, [fp, #16]
 8001d7c:	f8cb 4010 	str.w	r4, [fp, #16]
 8001d80:	f8cb 5010 	str.w	r5, [fp, #16]
 8001d84:	f7fe fe16 	bl	80009b4 <lcd_wr_xdata>
 8001d88:	f8cb 9010 	str.w	r9, [fp, #16]
 8001d8c:	2000      	movs	r0, #0
 8001d8e:	f8cb 8010 	str.w	r8, [fp, #16]
 8001d92:	f8c7 a00c 	str.w	sl, [r7, #12]
 8001d96:	f8cb 6010 	str.w	r6, [fp, #16]
 8001d9a:	f8cb 4010 	str.w	r4, [fp, #16]
 8001d9e:	f8cb 5010 	str.w	r5, [fp, #16]
 8001da2:	f7fe fe07 	bl	80009b4 <lcd_wr_xdata>
 8001da6:	20e2      	movs	r0, #226	@ 0xe2
 8001da8:	f7fe fe04 	bl	80009b4 <lcd_wr_xdata>
 8001dac:	f7fe fe02 	bl	80009b4 <lcd_wr_xdata>
 8001db0:	f7fe fe00 	bl	80009b4 <lcd_wr_xdata>
 8001db4:	22bf      	movs	r2, #191	@ 0xbf
 8001db6:	f8cb 9010 	str.w	r9, [fp, #16]
 8001dba:	20aa      	movs	r0, #170	@ 0xaa
 8001dbc:	f8cb 8010 	str.w	r8, [fp, #16]
 8001dc0:	60fa      	str	r2, [r7, #12]
 8001dc2:	f8cb 6010 	str.w	r6, [fp, #16]
 8001dc6:	f8cb 4010 	str.w	r4, [fp, #16]
 8001dca:	f8cb 5010 	str.w	r5, [fp, #16]
 8001dce:	f7fe fdf1 	bl	80009b4 <lcd_wr_xdata>
 8001dd2:	22b0      	movs	r2, #176	@ 0xb0
 8001dd4:	f8cb 9010 	str.w	r9, [fp, #16]
 8001dd8:	200d      	movs	r0, #13
 8001dda:	f8cb 8010 	str.w	r8, [fp, #16]
 8001dde:	60fa      	str	r2, [r7, #12]
 8001de0:	f8cb 6010 	str.w	r6, [fp, #16]
 8001de4:	f8cb 4010 	str.w	r4, [fp, #16]
 8001de8:	f8cb 5010 	str.w	r5, [fp, #16]
 8001dec:	f7fe fde2 	bl	80009b4 <lcd_wr_xdata>
 8001df0:	2000      	movs	r0, #0
 8001df2:	f7fe fddf 	bl	80009b4 <lcd_wr_xdata>
 8001df6:	200d      	movs	r0, #13
 8001df8:	f7fe fddc 	bl	80009b4 <lcd_wr_xdata>
 8001dfc:	2000      	movs	r0, #0
 8001dfe:	f7fe fdd9 	bl	80009b4 <lcd_wr_xdata>
 8001e02:	2011      	movs	r0, #17
 8001e04:	f7fe fdd6 	bl	80009b4 <lcd_wr_xdata>
 8001e08:	2000      	movs	r0, #0
 8001e0a:	f7fe fdd3 	bl	80009b4 <lcd_wr_xdata>
 8001e0e:	2019      	movs	r0, #25
 8001e10:	f7fe fdd0 	bl	80009b4 <lcd_wr_xdata>
 8001e14:	2000      	movs	r0, #0
 8001e16:	f7fe fdcd 	bl	80009b4 <lcd_wr_xdata>
 8001e1a:	2021      	movs	r0, #33	@ 0x21
 8001e1c:	f7fe fdca 	bl	80009b4 <lcd_wr_xdata>
 8001e20:	2000      	movs	r0, #0
 8001e22:	f7fe fdc7 	bl	80009b4 <lcd_wr_xdata>
 8001e26:	202d      	movs	r0, #45	@ 0x2d
 8001e28:	f7fe fdc4 	bl	80009b4 <lcd_wr_xdata>
 8001e2c:	2000      	movs	r0, #0
 8001e2e:	f7fe fdc1 	bl	80009b4 <lcd_wr_xdata>
 8001e32:	203d      	movs	r0, #61	@ 0x3d
 8001e34:	f7fe fdbe 	bl	80009b4 <lcd_wr_xdata>
 8001e38:	2000      	movs	r0, #0
 8001e3a:	f7fe fdbb 	bl	80009b4 <lcd_wr_xdata>
 8001e3e:	205d      	movs	r0, #93	@ 0x5d
 8001e40:	f7fe fdb8 	bl	80009b4 <lcd_wr_xdata>
 8001e44:	2000      	movs	r0, #0
 8001e46:	f7fe fdb5 	bl	80009b4 <lcd_wr_xdata>
 8001e4a:	205d      	movs	r0, #93	@ 0x5d
 8001e4c:	f7fe fdb2 	bl	80009b4 <lcd_wr_xdata>
 8001e50:	2000      	movs	r0, #0
 8001e52:	f7fe fdaf 	bl	80009b4 <lcd_wr_xdata>
 8001e56:	22b1      	movs	r2, #177	@ 0xb1
 8001e58:	f8cb 9010 	str.w	r9, [fp, #16]
 8001e5c:	4620      	mov	r0, r4
 8001e5e:	f8cb 8010 	str.w	r8, [fp, #16]
 8001e62:	60fa      	str	r2, [r7, #12]
 8001e64:	f8cb 6010 	str.w	r6, [fp, #16]
 8001e68:	f8cb 4010 	str.w	r4, [fp, #16]
 8001e6c:	f8cb 5010 	str.w	r5, [fp, #16]
 8001e70:	f7fe fda0 	bl	80009b4 <lcd_wr_xdata>
 8001e74:	2000      	movs	r0, #0
 8001e76:	f7fe fd9d 	bl	80009b4 <lcd_wr_xdata>
 8001e7a:	208b      	movs	r0, #139	@ 0x8b
 8001e7c:	f7fe fd9a 	bl	80009b4 <lcd_wr_xdata>
 8001e80:	2000      	movs	r0, #0
 8001e82:	f7fe fd97 	bl	80009b4 <lcd_wr_xdata>
 8001e86:	2096      	movs	r0, #150	@ 0x96
 8001e88:	f7fe fd94 	bl	80009b4 <lcd_wr_xdata>
 8001e8c:	2000      	movs	r0, #0
 8001e8e:	f7fe fd91 	bl	80009b4 <lcd_wr_xdata>
 8001e92:	22b2      	movs	r2, #178	@ 0xb2
 8001e94:	f8cb 9010 	str.w	r9, [fp, #16]
 8001e98:	f8cb 8010 	str.w	r8, [fp, #16]
 8001e9c:	60fa      	str	r2, [r7, #12]
 8001e9e:	f8cb 6010 	str.w	r6, [fp, #16]
 8001ea2:	f8cb 4010 	str.w	r4, [fp, #16]
 8001ea6:	f8cb 5010 	str.w	r5, [fp, #16]
 8001eaa:	f7fe fd83 	bl	80009b4 <lcd_wr_xdata>
 8001eae:	f7fe fd81 	bl	80009b4 <lcd_wr_xdata>
 8001eb2:	2002      	movs	r0, #2
 8001eb4:	f7fe fd7e 	bl	80009b4 <lcd_wr_xdata>
 8001eb8:	2000      	movs	r0, #0
 8001eba:	f7fe fd7b 	bl	80009b4 <lcd_wr_xdata>
 8001ebe:	2003      	movs	r0, #3
 8001ec0:	f7fe fd78 	bl	80009b4 <lcd_wr_xdata>
 8001ec4:	2000      	movs	r0, #0
 8001ec6:	f7fe fd75 	bl	80009b4 <lcd_wr_xdata>
 8001eca:	22b3      	movs	r2, #179	@ 0xb3
 8001ecc:	f8cb 9010 	str.w	r9, [fp, #16]
 8001ed0:	f8cb 8010 	str.w	r8, [fp, #16]
 8001ed4:	60fa      	str	r2, [r7, #12]
 8001ed6:	f8cb 6010 	str.w	r6, [fp, #16]
 8001eda:	f8cb 4010 	str.w	r4, [fp, #16]
 8001ede:	f8cb 5010 	str.w	r5, [fp, #16]
 8001ee2:	f7fe fd67 	bl	80009b4 <lcd_wr_xdata>
 8001ee6:	f7fe fd65 	bl	80009b4 <lcd_wr_xdata>
 8001eea:	f7fe fd63 	bl	80009b4 <lcd_wr_xdata>
 8001eee:	f7fe fd61 	bl	80009b4 <lcd_wr_xdata>
 8001ef2:	f7fe fd5f 	bl	80009b4 <lcd_wr_xdata>
 8001ef6:	f7fe fd5d 	bl	80009b4 <lcd_wr_xdata>
 8001efa:	f7fe fd5b 	bl	80009b4 <lcd_wr_xdata>
 8001efe:	f7fe fd59 	bl	80009b4 <lcd_wr_xdata>
 8001f02:	f7fe fd57 	bl	80009b4 <lcd_wr_xdata>
 8001f06:	f7fe fd55 	bl	80009b4 <lcd_wr_xdata>
 8001f0a:	f7fe fd53 	bl	80009b4 <lcd_wr_xdata>
 8001f0e:	f7fe fd51 	bl	80009b4 <lcd_wr_xdata>
 8001f12:	f7fe fd4f 	bl	80009b4 <lcd_wr_xdata>
 8001f16:	f7fe fd4d 	bl	80009b4 <lcd_wr_xdata>
 8001f1a:	f7fe fd4b 	bl	80009b4 <lcd_wr_xdata>
 8001f1e:	f7fe fd49 	bl	80009b4 <lcd_wr_xdata>
 8001f22:	f7fe fd47 	bl	80009b4 <lcd_wr_xdata>
 8001f26:	f7fe fd45 	bl	80009b4 <lcd_wr_xdata>
 8001f2a:	f7fe fd43 	bl	80009b4 <lcd_wr_xdata>
 8001f2e:	f7fe fd41 	bl	80009b4 <lcd_wr_xdata>
 8001f32:	f7fe fd3f 	bl	80009b4 <lcd_wr_xdata>
 8001f36:	f7fe fd3d 	bl	80009b4 <lcd_wr_xdata>
 8001f3a:	f7fe fd3b 	bl	80009b4 <lcd_wr_xdata>
 8001f3e:	f7fe fd39 	bl	80009b4 <lcd_wr_xdata>
 8001f42:	20b4      	movs	r0, #180	@ 0xb4
 8001f44:	f8cb 9010 	str.w	r9, [fp, #16]
 8001f48:	f8cb 8010 	str.w	r8, [fp, #16]
 8001f4c:	60f8      	str	r0, [r7, #12]
 8001f4e:	f8cb 6010 	str.w	r6, [fp, #16]
 8001f52:	208b      	movs	r0, #139	@ 0x8b
 8001f54:	f8cb 4010 	str.w	r4, [fp, #16]
 8001f58:	f8cb 5010 	str.w	r5, [fp, #16]
 8001f5c:	f7fe fd2a 	bl	80009b4 <lcd_wr_xdata>
 8001f60:	2000      	movs	r0, #0
 8001f62:	f7fe fd27 	bl	80009b4 <lcd_wr_xdata>
 8001f66:	2096      	movs	r0, #150	@ 0x96
 8001f68:	f7fe fd24 	bl	80009b4 <lcd_wr_xdata>
 8001f6c:	2000      	movs	r0, #0
 8001f6e:	f7fe fd21 	bl	80009b4 <lcd_wr_xdata>
 8001f72:	20a1      	movs	r0, #161	@ 0xa1
 8001f74:	f7fe fd1e 	bl	80009b4 <lcd_wr_xdata>
 8001f78:	2000      	movs	r0, #0
 8001f7a:	f7fe fd1b 	bl	80009b4 <lcd_wr_xdata>
 8001f7e:	20b5      	movs	r0, #181	@ 0xb5
 8001f80:	f8cb 9010 	str.w	r9, [fp, #16]
 8001f84:	f8cb 8010 	str.w	r8, [fp, #16]
 8001f88:	60f8      	str	r0, [r7, #12]
 8001f8a:	f8cb 6010 	str.w	r6, [fp, #16]
 8001f8e:	2002      	movs	r0, #2
 8001f90:	f8cb 4010 	str.w	r4, [fp, #16]
 8001f94:	f8cb 5010 	str.w	r5, [fp, #16]
 8001f98:	f7fe fd0c 	bl	80009b4 <lcd_wr_xdata>
 8001f9c:	2000      	movs	r0, #0
 8001f9e:	f7fe fd09 	bl	80009b4 <lcd_wr_xdata>
 8001fa2:	2003      	movs	r0, #3
 8001fa4:	f7fe fd06 	bl	80009b4 <lcd_wr_xdata>
 8001fa8:	2000      	movs	r0, #0
 8001faa:	f7fe fd03 	bl	80009b4 <lcd_wr_xdata>
 8001fae:	2004      	movs	r0, #4
 8001fb0:	f7fe fd00 	bl	80009b4 <lcd_wr_xdata>
 8001fb4:	2000      	movs	r0, #0
 8001fb6:	f7fe fcfd 	bl	80009b4 <lcd_wr_xdata>
 8001fba:	23b6      	movs	r3, #182	@ 0xb6
 8001fbc:	f8cb 9010 	str.w	r9, [fp, #16]
 8001fc0:	f8cb 8010 	str.w	r8, [fp, #16]
 8001fc4:	60fb      	str	r3, [r7, #12]
 8001fc6:	f8cb 6010 	str.w	r6, [fp, #16]
 8001fca:	f8cb 4010 	str.w	r4, [fp, #16]
 8001fce:	f8cb 5010 	str.w	r5, [fp, #16]
 8001fd2:	f7fe fcef 	bl	80009b4 <lcd_wr_xdata>
 8001fd6:	f7fe fced 	bl	80009b4 <lcd_wr_xdata>
 8001fda:	23b7      	movs	r3, #183	@ 0xb7
 8001fdc:	f8cb 9010 	str.w	r9, [fp, #16]
 8001fe0:	f8cb 8010 	str.w	r8, [fp, #16]
 8001fe4:	60fb      	str	r3, [r7, #12]
 8001fe6:	f8cb 6010 	str.w	r6, [fp, #16]
 8001fea:	f8cb 4010 	str.w	r4, [fp, #16]
 8001fee:	f8cb 5010 	str.w	r5, [fp, #16]
 8001ff2:	f7fe fcdf 	bl	80009b4 <lcd_wr_xdata>
 8001ff6:	f7fe fcdd 	bl	80009b4 <lcd_wr_xdata>
 8001ffa:	203f      	movs	r0, #63	@ 0x3f
 8001ffc:	f7fe fcda 	bl	80009b4 <lcd_wr_xdata>
 8002000:	2000      	movs	r0, #0
 8002002:	f7fe fcd7 	bl	80009b4 <lcd_wr_xdata>
 8002006:	205e      	movs	r0, #94	@ 0x5e
 8002008:	f7fe fcd4 	bl	80009b4 <lcd_wr_xdata>
 800200c:	2000      	movs	r0, #0
 800200e:	f7fe fcd1 	bl	80009b4 <lcd_wr_xdata>
 8002012:	2064      	movs	r0, #100	@ 0x64
 8002014:	f7fe fcce 	bl	80009b4 <lcd_wr_xdata>
 8002018:	2000      	movs	r0, #0
 800201a:	f7fe fccb 	bl	80009b4 <lcd_wr_xdata>
 800201e:	208c      	movs	r0, #140	@ 0x8c
 8002020:	f7fe fcc8 	bl	80009b4 <lcd_wr_xdata>
 8002024:	2000      	movs	r0, #0
 8002026:	f7fe fcc5 	bl	80009b4 <lcd_wr_xdata>
 800202a:	20ac      	movs	r0, #172	@ 0xac
 800202c:	f7fe fcc2 	bl	80009b4 <lcd_wr_xdata>
 8002030:	2000      	movs	r0, #0
 8002032:	f7fe fcbf 	bl	80009b4 <lcd_wr_xdata>
 8002036:	20dc      	movs	r0, #220	@ 0xdc
 8002038:	f7fe fcbc 	bl	80009b4 <lcd_wr_xdata>
 800203c:	2000      	movs	r0, #0
 800203e:	f7fe fcb9 	bl	80009b4 <lcd_wr_xdata>
 8002042:	2070      	movs	r0, #112	@ 0x70
 8002044:	f7fe fcb6 	bl	80009b4 <lcd_wr_xdata>
 8002048:	2000      	movs	r0, #0
 800204a:	f7fe fcb3 	bl	80009b4 <lcd_wr_xdata>
 800204e:	2090      	movs	r0, #144	@ 0x90
 8002050:	f7fe fcb0 	bl	80009b4 <lcd_wr_xdata>
 8002054:	2000      	movs	r0, #0
 8002056:	f7fe fcad 	bl	80009b4 <lcd_wr_xdata>
 800205a:	20eb      	movs	r0, #235	@ 0xeb
 800205c:	f7fe fcaa 	bl	80009b4 <lcd_wr_xdata>
 8002060:	2000      	movs	r0, #0
 8002062:	f7fe fca7 	bl	80009b4 <lcd_wr_xdata>
 8002066:	20dc      	movs	r0, #220	@ 0xdc
 8002068:	f7fe fca4 	bl	80009b4 <lcd_wr_xdata>
 800206c:	2000      	movs	r0, #0
 800206e:	f7fe fca1 	bl	80009b4 <lcd_wr_xdata>
 8002072:	23b8      	movs	r3, #184	@ 0xb8
 8002074:	f8cb 9010 	str.w	r9, [fp, #16]
 8002078:	f8cb 8010 	str.w	r8, [fp, #16]
 800207c:	60fb      	str	r3, [r7, #12]
 800207e:	f8cb 6010 	str.w	r6, [fp, #16]
 8002082:	f8cb 4010 	str.w	r4, [fp, #16]
 8002086:	f8cb 5010 	str.w	r5, [fp, #16]
 800208a:	f7fe fc93 	bl	80009b4 <lcd_wr_xdata>
 800208e:	f7fe fc91 	bl	80009b4 <lcd_wr_xdata>
 8002092:	f7fe fc8f 	bl	80009b4 <lcd_wr_xdata>
 8002096:	f7fe fc8d 	bl	80009b4 <lcd_wr_xdata>
 800209a:	f7fe fc8b 	bl	80009b4 <lcd_wr_xdata>
 800209e:	f7fe fc89 	bl	80009b4 <lcd_wr_xdata>
 80020a2:	f7fe fc87 	bl	80009b4 <lcd_wr_xdata>
 80020a6:	f7fe fc85 	bl	80009b4 <lcd_wr_xdata>
 80020aa:	20ba      	movs	r0, #186	@ 0xba
 80020ac:	f8cb 9010 	str.w	r9, [fp, #16]
 80020b0:	f8cb 8010 	str.w	r8, [fp, #16]
 80020b4:	60f8      	str	r0, [r7, #12]
 80020b6:	e001      	b.n	80020bc <lcd_init+0xe00>
 80020b8:	40010c00 	.word	0x40010c00
 80020bc:	f8cb 6010 	str.w	r6, [fp, #16]
 80020c0:	2024      	movs	r0, #36	@ 0x24
 80020c2:	f8cb 4010 	str.w	r4, [fp, #16]
 80020c6:	f8cb 5010 	str.w	r5, [fp, #16]
 80020ca:	f7fe fc73 	bl	80009b4 <lcd_wr_xdata>
 80020ce:	2000      	movs	r0, #0
 80020d0:	f7fe fc70 	bl	80009b4 <lcd_wr_xdata>
 80020d4:	f7fe fc6e 	bl	80009b4 <lcd_wr_xdata>
 80020d8:	f7fe fc6c 	bl	80009b4 <lcd_wr_xdata>
 80020dc:	20c1      	movs	r0, #193	@ 0xc1
 80020de:	f8cb 9010 	str.w	r9, [fp, #16]
 80020e2:	f8cb 8010 	str.w	r8, [fp, #16]
 80020e6:	60f8      	str	r0, [r7, #12]
 80020e8:	f8cb 6010 	str.w	r6, [fp, #16]
 80020ec:	2020      	movs	r0, #32
 80020ee:	f8cb 4010 	str.w	r4, [fp, #16]
 80020f2:	f8cb 5010 	str.w	r5, [fp, #16]
 80020f6:	f7fe fc5d 	bl	80009b4 <lcd_wr_xdata>
 80020fa:	2000      	movs	r0, #0
 80020fc:	f7fe fc5a 	bl	80009b4 <lcd_wr_xdata>
 8002100:	2054      	movs	r0, #84	@ 0x54
 8002102:	f7fe fc57 	bl	80009b4 <lcd_wr_xdata>
 8002106:	2000      	movs	r0, #0
 8002108:	f7fe fc54 	bl	80009b4 <lcd_wr_xdata>
 800210c:	20ff      	movs	r0, #255	@ 0xff
 800210e:	f7fe fc51 	bl	80009b4 <lcd_wr_xdata>
 8002112:	2000      	movs	r0, #0
 8002114:	f7fe fc4e 	bl	80009b4 <lcd_wr_xdata>
 8002118:	23c2      	movs	r3, #194	@ 0xc2
 800211a:	f8cb 9010 	str.w	r9, [fp, #16]
 800211e:	200a      	movs	r0, #10
 8002120:	f8cb 8010 	str.w	r8, [fp, #16]
 8002124:	60fb      	str	r3, [r7, #12]
 8002126:	f8cb 6010 	str.w	r6, [fp, #16]
 800212a:	f8cb 4010 	str.w	r4, [fp, #16]
 800212e:	f8cb 5010 	str.w	r5, [fp, #16]
 8002132:	f7fe fc3f 	bl	80009b4 <lcd_wr_xdata>
 8002136:	2000      	movs	r0, #0
 8002138:	f7fe fc3c 	bl	80009b4 <lcd_wr_xdata>
 800213c:	2004      	movs	r0, #4
 800213e:	f7fe fc39 	bl	80009b4 <lcd_wr_xdata>
 8002142:	2000      	movs	r0, #0
 8002144:	f7fe fc36 	bl	80009b4 <lcd_wr_xdata>
 8002148:	20c3      	movs	r0, #195	@ 0xc3
 800214a:	f8cb 9010 	str.w	r9, [fp, #16]
 800214e:	f8cb 8010 	str.w	r8, [fp, #16]
 8002152:	60f8      	str	r0, [r7, #12]
 8002154:	f8cb 6010 	str.w	r6, [fp, #16]
 8002158:	203c      	movs	r0, #60	@ 0x3c
 800215a:	f8cb 4010 	str.w	r4, [fp, #16]
 800215e:	f8cb 5010 	str.w	r5, [fp, #16]
 8002162:	f7fe fc27 	bl	80009b4 <lcd_wr_xdata>
 8002166:	2000      	movs	r0, #0
 8002168:	f7fe fc24 	bl	80009b4 <lcd_wr_xdata>
 800216c:	203a      	movs	r0, #58	@ 0x3a
 800216e:	f7fe fc21 	bl	80009b4 <lcd_wr_xdata>
 8002172:	2000      	movs	r0, #0
 8002174:	f7fe fc1e 	bl	80009b4 <lcd_wr_xdata>
 8002178:	2039      	movs	r0, #57	@ 0x39
 800217a:	f7fe fc1b 	bl	80009b4 <lcd_wr_xdata>
 800217e:	2000      	movs	r0, #0
 8002180:	f7fe fc18 	bl	80009b4 <lcd_wr_xdata>
 8002184:	2037      	movs	r0, #55	@ 0x37
 8002186:	f7fe fc15 	bl	80009b4 <lcd_wr_xdata>
 800218a:	2000      	movs	r0, #0
 800218c:	f7fe fc12 	bl	80009b4 <lcd_wr_xdata>
 8002190:	203c      	movs	r0, #60	@ 0x3c
 8002192:	f7fe fc0f 	bl	80009b4 <lcd_wr_xdata>
 8002196:	2000      	movs	r0, #0
 8002198:	f7fe fc0c 	bl	80009b4 <lcd_wr_xdata>
 800219c:	2036      	movs	r0, #54	@ 0x36
 800219e:	f7fe fc09 	bl	80009b4 <lcd_wr_xdata>
 80021a2:	2000      	movs	r0, #0
 80021a4:	f7fe fc06 	bl	80009b4 <lcd_wr_xdata>
 80021a8:	2032      	movs	r0, #50	@ 0x32
 80021aa:	f7fe fc03 	bl	80009b4 <lcd_wr_xdata>
 80021ae:	2000      	movs	r0, #0
 80021b0:	f7fe fc00 	bl	80009b4 <lcd_wr_xdata>
 80021b4:	202f      	movs	r0, #47	@ 0x2f
 80021b6:	f7fe fbfd 	bl	80009b4 <lcd_wr_xdata>
 80021ba:	2000      	movs	r0, #0
 80021bc:	f7fe fbfa 	bl	80009b4 <lcd_wr_xdata>
 80021c0:	202c      	movs	r0, #44	@ 0x2c
 80021c2:	f7fe fbf7 	bl	80009b4 <lcd_wr_xdata>
 80021c6:	2000      	movs	r0, #0
 80021c8:	f7fe fbf4 	bl	80009b4 <lcd_wr_xdata>
 80021cc:	2029      	movs	r0, #41	@ 0x29
 80021ce:	f7fe fbf1 	bl	80009b4 <lcd_wr_xdata>
 80021d2:	2000      	movs	r0, #0
 80021d4:	f7fe fbee 	bl	80009b4 <lcd_wr_xdata>
 80021d8:	2026      	movs	r0, #38	@ 0x26
 80021da:	f7fe fbeb 	bl	80009b4 <lcd_wr_xdata>
 80021de:	2000      	movs	r0, #0
 80021e0:	f7fe fbe8 	bl	80009b4 <lcd_wr_xdata>
 80021e4:	2024      	movs	r0, #36	@ 0x24
 80021e6:	f7fe fbe5 	bl	80009b4 <lcd_wr_xdata>
 80021ea:	2000      	movs	r0, #0
 80021ec:	f7fe fbe2 	bl	80009b4 <lcd_wr_xdata>
 80021f0:	2024      	movs	r0, #36	@ 0x24
 80021f2:	f7fe fbdf 	bl	80009b4 <lcd_wr_xdata>
 80021f6:	2000      	movs	r0, #0
 80021f8:	f7fe fbdc 	bl	80009b4 <lcd_wr_xdata>
 80021fc:	2023      	movs	r0, #35	@ 0x23
 80021fe:	f7fe fbd9 	bl	80009b4 <lcd_wr_xdata>
 8002202:	2000      	movs	r0, #0
 8002204:	f7fe fbd6 	bl	80009b4 <lcd_wr_xdata>
 8002208:	203c      	movs	r0, #60	@ 0x3c
 800220a:	f7fe fbd3 	bl	80009b4 <lcd_wr_xdata>
 800220e:	2000      	movs	r0, #0
 8002210:	f7fe fbd0 	bl	80009b4 <lcd_wr_xdata>
 8002214:	2036      	movs	r0, #54	@ 0x36
 8002216:	f7fe fbcd 	bl	80009b4 <lcd_wr_xdata>
 800221a:	2000      	movs	r0, #0
 800221c:	f7fe fbca 	bl	80009b4 <lcd_wr_xdata>
 8002220:	2032      	movs	r0, #50	@ 0x32
 8002222:	f7fe fbc7 	bl	80009b4 <lcd_wr_xdata>
 8002226:	2000      	movs	r0, #0
 8002228:	f7fe fbc4 	bl	80009b4 <lcd_wr_xdata>
 800222c:	202f      	movs	r0, #47	@ 0x2f
 800222e:	f7fe fbc1 	bl	80009b4 <lcd_wr_xdata>
 8002232:	2000      	movs	r0, #0
 8002234:	f7fe fbbe 	bl	80009b4 <lcd_wr_xdata>
 8002238:	202c      	movs	r0, #44	@ 0x2c
 800223a:	f7fe fbbb 	bl	80009b4 <lcd_wr_xdata>
 800223e:	2000      	movs	r0, #0
 8002240:	f7fe fbb8 	bl	80009b4 <lcd_wr_xdata>
 8002244:	2029      	movs	r0, #41	@ 0x29
 8002246:	f7fe fbb5 	bl	80009b4 <lcd_wr_xdata>
 800224a:	2000      	movs	r0, #0
 800224c:	f7fe fbb2 	bl	80009b4 <lcd_wr_xdata>
 8002250:	2026      	movs	r0, #38	@ 0x26
 8002252:	f7fe fbaf 	bl	80009b4 <lcd_wr_xdata>
 8002256:	2000      	movs	r0, #0
 8002258:	f7fe fbac 	bl	80009b4 <lcd_wr_xdata>
 800225c:	2024      	movs	r0, #36	@ 0x24
 800225e:	f7fe fba9 	bl	80009b4 <lcd_wr_xdata>
 8002262:	2000      	movs	r0, #0
 8002264:	f7fe fba6 	bl	80009b4 <lcd_wr_xdata>
 8002268:	2024      	movs	r0, #36	@ 0x24
 800226a:	f7fe fba3 	bl	80009b4 <lcd_wr_xdata>
 800226e:	2000      	movs	r0, #0
 8002270:	f7fe fba0 	bl	80009b4 <lcd_wr_xdata>
 8002274:	2023      	movs	r0, #35	@ 0x23
 8002276:	f7fe fb9d 	bl	80009b4 <lcd_wr_xdata>
 800227a:	2000      	movs	r0, #0
 800227c:	f7fe fb9a 	bl	80009b4 <lcd_wr_xdata>
 8002280:	f8cb 9010 	str.w	r9, [fp, #16]
 8002284:	2062      	movs	r0, #98	@ 0x62
 8002286:	f8cb 8010 	str.w	r8, [fp, #16]
 800228a:	60f9      	str	r1, [r7, #12]
 800228c:	f8cb 6010 	str.w	r6, [fp, #16]
 8002290:	f8cb 4010 	str.w	r4, [fp, #16]
 8002294:	f8cb 5010 	str.w	r5, [fp, #16]
 8002298:	f7fe fb8c 	bl	80009b4 <lcd_wr_xdata>
 800229c:	2000      	movs	r0, #0
 800229e:	f7fe fb89 	bl	80009b4 <lcd_wr_xdata>
 80022a2:	2005      	movs	r0, #5
 80022a4:	f7fe fb86 	bl	80009b4 <lcd_wr_xdata>
 80022a8:	2000      	movs	r0, #0
 80022aa:	f7fe fb83 	bl	80009b4 <lcd_wr_xdata>
 80022ae:	2084      	movs	r0, #132	@ 0x84
 80022b0:	f7fe fb80 	bl	80009b4 <lcd_wr_xdata>
 80022b4:	2000      	movs	r0, #0
 80022b6:	f7fe fb7d 	bl	80009b4 <lcd_wr_xdata>
 80022ba:	20f0      	movs	r0, #240	@ 0xf0
 80022bc:	f7fe fb7a 	bl	80009b4 <lcd_wr_xdata>
 80022c0:	2000      	movs	r0, #0
 80022c2:	f7fe fb77 	bl	80009b4 <lcd_wr_xdata>
 80022c6:	2018      	movs	r0, #24
 80022c8:	f7fe fb74 	bl	80009b4 <lcd_wr_xdata>
 80022cc:	2000      	movs	r0, #0
 80022ce:	f7fe fb71 	bl	80009b4 <lcd_wr_xdata>
 80022d2:	20a4      	movs	r0, #164	@ 0xa4
 80022d4:	f7fe fb6e 	bl	80009b4 <lcd_wr_xdata>
 80022d8:	2000      	movs	r0, #0
 80022da:	f7fe fb6b 	bl	80009b4 <lcd_wr_xdata>
 80022de:	2018      	movs	r0, #24
 80022e0:	f7fe fb68 	bl	80009b4 <lcd_wr_xdata>
 80022e4:	2000      	movs	r0, #0
 80022e6:	f7fe fb65 	bl	80009b4 <lcd_wr_xdata>
 80022ea:	2050      	movs	r0, #80	@ 0x50
 80022ec:	f7fe fb62 	bl	80009b4 <lcd_wr_xdata>
 80022f0:	2000      	movs	r0, #0
 80022f2:	f7fe fb5f 	bl	80009b4 <lcd_wr_xdata>
 80022f6:	200c      	movs	r0, #12
 80022f8:	f7fe fb5c 	bl	80009b4 <lcd_wr_xdata>
 80022fc:	2000      	movs	r0, #0
 80022fe:	f7fe fb59 	bl	80009b4 <lcd_wr_xdata>
 8002302:	2017      	movs	r0, #23
 8002304:	f7fe fb56 	bl	80009b4 <lcd_wr_xdata>
 8002308:	2000      	movs	r0, #0
 800230a:	f7fe fb53 	bl	80009b4 <lcd_wr_xdata>
 800230e:	2095      	movs	r0, #149	@ 0x95
 8002310:	f7fe fb50 	bl	80009b4 <lcd_wr_xdata>
 8002314:	2000      	movs	r0, #0
 8002316:	f7fe fb4d 	bl	80009b4 <lcd_wr_xdata>
 800231a:	20f3      	movs	r0, #243	@ 0xf3
 800231c:	f7fe fb4a 	bl	80009b4 <lcd_wr_xdata>
 8002320:	2000      	movs	r0, #0
 8002322:	f7fe fb47 	bl	80009b4 <lcd_wr_xdata>
 8002326:	20e6      	movs	r0, #230	@ 0xe6
 8002328:	f7fe fb44 	bl	80009b4 <lcd_wr_xdata>
 800232c:	2000      	movs	r0, #0
 800232e:	f7fe fb41 	bl	80009b4 <lcd_wr_xdata>
 8002332:	20c5      	movs	r0, #197	@ 0xc5
 8002334:	f8cb 9010 	str.w	r9, [fp, #16]
 8002338:	f8cb 8010 	str.w	r8, [fp, #16]
 800233c:	60f8      	str	r0, [r7, #12]
 800233e:	f8cb 6010 	str.w	r6, [fp, #16]
 8002342:	2032      	movs	r0, #50	@ 0x32
 8002344:	f8cb 4010 	str.w	r4, [fp, #16]
 8002348:	f8cb 5010 	str.w	r5, [fp, #16]
 800234c:	f7fe fb32 	bl	80009b4 <lcd_wr_xdata>
 8002350:	2000      	movs	r0, #0
 8002352:	f7fe fb2f 	bl	80009b4 <lcd_wr_xdata>
 8002356:	2044      	movs	r0, #68	@ 0x44
 8002358:	f7fe fb2c 	bl	80009b4 <lcd_wr_xdata>
 800235c:	2000      	movs	r0, #0
 800235e:	f7fe fb29 	bl	80009b4 <lcd_wr_xdata>
 8002362:	2065      	movs	r0, #101	@ 0x65
 8002364:	f7fe fb26 	bl	80009b4 <lcd_wr_xdata>
 8002368:	2000      	movs	r0, #0
 800236a:	f7fe fb23 	bl	80009b4 <lcd_wr_xdata>
 800236e:	2076      	movs	r0, #118	@ 0x76
 8002370:	f7fe fb20 	bl	80009b4 <lcd_wr_xdata>
 8002374:	2000      	movs	r0, #0
 8002376:	f7fe fb1d 	bl	80009b4 <lcd_wr_xdata>
 800237a:	2088      	movs	r0, #136	@ 0x88
 800237c:	f7fe fb1a 	bl	80009b4 <lcd_wr_xdata>
 8002380:	2000      	movs	r0, #0
 8002382:	f7fe fb17 	bl	80009b4 <lcd_wr_xdata>
 8002386:	f8cb 9010 	str.w	r9, [fp, #16]
 800238a:	2020      	movs	r0, #32
 800238c:	f8cb 8010 	str.w	r8, [fp, #16]
 8002390:	f8c7 a00c 	str.w	sl, [r7, #12]
 8002394:	f8cb 6010 	str.w	r6, [fp, #16]
 8002398:	f8cb 4010 	str.w	r4, [fp, #16]
 800239c:	f8cb 5010 	str.w	r5, [fp, #16]
 80023a0:	f7fe fb08 	bl	80009b4 <lcd_wr_xdata>
 80023a4:	2000      	movs	r0, #0
 80023a6:	f7fe fb05 	bl	80009b4 <lcd_wr_xdata>
 80023aa:	2017      	movs	r0, #23
 80023ac:	f7fe fb02 	bl	80009b4 <lcd_wr_xdata>
 80023b0:	2000      	movs	r0, #0
 80023b2:	f7fe faff 	bl	80009b4 <lcd_wr_xdata>
 80023b6:	2001      	movs	r0, #1
 80023b8:	f7fe fafc 	bl	80009b4 <lcd_wr_xdata>
 80023bc:	2000      	movs	r0, #0
 80023be:	f7fe faf9 	bl	80009b4 <lcd_wr_xdata>
 80023c2:	23c7      	movs	r3, #199	@ 0xc7
 80023c4:	f8cb 9010 	str.w	r9, [fp, #16]
 80023c8:	f8cb 8010 	str.w	r8, [fp, #16]
 80023cc:	60fb      	str	r3, [r7, #12]
 80023ce:	f8cb 6010 	str.w	r6, [fp, #16]
 80023d2:	f8cb 4010 	str.w	r4, [fp, #16]
 80023d6:	f8cb 5010 	str.w	r5, [fp, #16]
 80023da:	f7fe faeb 	bl	80009b4 <lcd_wr_xdata>
 80023de:	f7fe fae9 	bl	80009b4 <lcd_wr_xdata>
 80023e2:	f7fe fae7 	bl	80009b4 <lcd_wr_xdata>
 80023e6:	f7fe fae5 	bl	80009b4 <lcd_wr_xdata>
 80023ea:	23c8      	movs	r3, #200	@ 0xc8
 80023ec:	f8cb 9010 	str.w	r9, [fp, #16]
 80023f0:	f8cb 8010 	str.w	r8, [fp, #16]
 80023f4:	60fb      	str	r3, [r7, #12]
 80023f6:	f8cb 6010 	str.w	r6, [fp, #16]
 80023fa:	f8cb 4010 	str.w	r4, [fp, #16]
 80023fe:	f8cb 5010 	str.w	r5, [fp, #16]
 8002402:	f7fe fad7 	bl	80009b4 <lcd_wr_xdata>
 8002406:	f7fe fad5 	bl	80009b4 <lcd_wr_xdata>
 800240a:	f7fe fad3 	bl	80009b4 <lcd_wr_xdata>
 800240e:	f7fe fad1 	bl	80009b4 <lcd_wr_xdata>
 8002412:	23c9      	movs	r3, #201	@ 0xc9
 8002414:	f04f 0ae0 	mov.w	sl, #224	@ 0xe0
 8002418:	f8cb 9010 	str.w	r9, [fp, #16]
 800241c:	f8cb 8010 	str.w	r8, [fp, #16]
 8002420:	60fb      	str	r3, [r7, #12]
 8002422:	f8cb 6010 	str.w	r6, [fp, #16]
 8002426:	f8cb 4010 	str.w	r4, [fp, #16]
 800242a:	f8cb 5010 	str.w	r5, [fp, #16]
 800242e:	f7fe fac1 	bl	80009b4 <lcd_wr_xdata>
 8002432:	f7fe fabf 	bl	80009b4 <lcd_wr_xdata>
 8002436:	f7fe fabd 	bl	80009b4 <lcd_wr_xdata>
 800243a:	f7fe fabb 	bl	80009b4 <lcd_wr_xdata>
 800243e:	f7fe fab9 	bl	80009b4 <lcd_wr_xdata>
 8002442:	f7fe fab7 	bl	80009b4 <lcd_wr_xdata>
 8002446:	f7fe fab5 	bl	80009b4 <lcd_wr_xdata>
 800244a:	f7fe fab3 	bl	80009b4 <lcd_wr_xdata>
 800244e:	f7fe fab1 	bl	80009b4 <lcd_wr_xdata>
 8002452:	f7fe faaf 	bl	80009b4 <lcd_wr_xdata>
 8002456:	f7fe faad 	bl	80009b4 <lcd_wr_xdata>
 800245a:	f7fe faab 	bl	80009b4 <lcd_wr_xdata>
 800245e:	f7fe faa9 	bl	80009b4 <lcd_wr_xdata>
 8002462:	f7fe faa7 	bl	80009b4 <lcd_wr_xdata>
 8002466:	f7fe faa5 	bl	80009b4 <lcd_wr_xdata>
 800246a:	f7fe faa3 	bl	80009b4 <lcd_wr_xdata>
 800246e:	f8cb 9010 	str.w	r9, [fp, #16]
 8002472:	2016      	movs	r0, #22
 8002474:	f8cb 8010 	str.w	r8, [fp, #16]
 8002478:	f8c7 a00c 	str.w	sl, [r7, #12]
 800247c:	f8cb 6010 	str.w	r6, [fp, #16]
 8002480:	f8cb 4010 	str.w	r4, [fp, #16]
 8002484:	f8cb 5010 	str.w	r5, [fp, #16]
 8002488:	f7fe fa94 	bl	80009b4 <lcd_wr_xdata>
 800248c:	2000      	movs	r0, #0
 800248e:	f7fe fa91 	bl	80009b4 <lcd_wr_xdata>
 8002492:	201c      	movs	r0, #28
 8002494:	f7fe fa8e 	bl	80009b4 <lcd_wr_xdata>
 8002498:	2000      	movs	r0, #0
 800249a:	f7fe fa8b 	bl	80009b4 <lcd_wr_xdata>
 800249e:	2021      	movs	r0, #33	@ 0x21
 80024a0:	f7fe fa88 	bl	80009b4 <lcd_wr_xdata>
 80024a4:	2000      	movs	r0, #0
 80024a6:	f7fe fa85 	bl	80009b4 <lcd_wr_xdata>
 80024aa:	2036      	movs	r0, #54	@ 0x36
 80024ac:	f7fe fa82 	bl	80009b4 <lcd_wr_xdata>
 80024b0:	2000      	movs	r0, #0
 80024b2:	f7fe fa7f 	bl	80009b4 <lcd_wr_xdata>
 80024b6:	2046      	movs	r0, #70	@ 0x46
 80024b8:	f7fe fa7c 	bl	80009b4 <lcd_wr_xdata>
 80024bc:	2000      	movs	r0, #0
 80024be:	f7fe fa79 	bl	80009b4 <lcd_wr_xdata>
 80024c2:	2052      	movs	r0, #82	@ 0x52
 80024c4:	f7fe fa76 	bl	80009b4 <lcd_wr_xdata>
 80024c8:	2000      	movs	r0, #0
 80024ca:	f7fe fa73 	bl	80009b4 <lcd_wr_xdata>
 80024ce:	2064      	movs	r0, #100	@ 0x64
 80024d0:	f7fe fa70 	bl	80009b4 <lcd_wr_xdata>
 80024d4:	2000      	movs	r0, #0
 80024d6:	f7fe fa6d 	bl	80009b4 <lcd_wr_xdata>
 80024da:	207a      	movs	r0, #122	@ 0x7a
 80024dc:	f7fe fa6a 	bl	80009b4 <lcd_wr_xdata>
 80024e0:	2000      	movs	r0, #0
 80024e2:	f7fe fa67 	bl	80009b4 <lcd_wr_xdata>
 80024e6:	208b      	movs	r0, #139	@ 0x8b
 80024e8:	f7fe fa64 	bl	80009b4 <lcd_wr_xdata>
 80024ec:	2000      	movs	r0, #0
 80024ee:	f7fe fa61 	bl	80009b4 <lcd_wr_xdata>
 80024f2:	2099      	movs	r0, #153	@ 0x99
 80024f4:	f7fe fa5e 	bl	80009b4 <lcd_wr_xdata>
 80024f8:	2000      	movs	r0, #0
 80024fa:	f7fe fa5b 	bl	80009b4 <lcd_wr_xdata>
 80024fe:	20a8      	movs	r0, #168	@ 0xa8
 8002500:	f7fe fa58 	bl	80009b4 <lcd_wr_xdata>
 8002504:	2000      	movs	r0, #0
 8002506:	f7fe fa55 	bl	80009b4 <lcd_wr_xdata>
 800250a:	20b9      	movs	r0, #185	@ 0xb9
 800250c:	f7fe fa52 	bl	80009b4 <lcd_wr_xdata>
 8002510:	2000      	movs	r0, #0
 8002512:	f7fe fa4f 	bl	80009b4 <lcd_wr_xdata>
 8002516:	4608      	mov	r0, r1
 8002518:	f7fe fa4c 	bl	80009b4 <lcd_wr_xdata>
 800251c:	2000      	movs	r0, #0
 800251e:	f7fe fa49 	bl	80009b4 <lcd_wr_xdata>
 8002522:	20ca      	movs	r0, #202	@ 0xca
 8002524:	f7fe fa46 	bl	80009b4 <lcd_wr_xdata>
 8002528:	2000      	movs	r0, #0
 800252a:	f7fe fa43 	bl	80009b4 <lcd_wr_xdata>
 800252e:	20d2      	movs	r0, #210	@ 0xd2
 8002530:	f7fe fa40 	bl	80009b4 <lcd_wr_xdata>
 8002534:	2000      	movs	r0, #0
 8002536:	f7fe fa3d 	bl	80009b4 <lcd_wr_xdata>
 800253a:	20d9      	movs	r0, #217	@ 0xd9
 800253c:	f7fe fa3a 	bl	80009b4 <lcd_wr_xdata>
 8002540:	2000      	movs	r0, #0
 8002542:	f7fe fa37 	bl	80009b4 <lcd_wr_xdata>
 8002546:	4650      	mov	r0, sl
 8002548:	f7fe fa34 	bl	80009b4 <lcd_wr_xdata>
 800254c:	2000      	movs	r0, #0
 800254e:	f7fe fa31 	bl	80009b4 <lcd_wr_xdata>
 8002552:	20f3      	movs	r0, #243	@ 0xf3
 8002554:	f7fe fa2e 	bl	80009b4 <lcd_wr_xdata>
 8002558:	2000      	movs	r0, #0
 800255a:	f7fe fa2b 	bl	80009b4 <lcd_wr_xdata>
 800255e:	20e1      	movs	r0, #225	@ 0xe1
 8002560:	f8cb 9010 	str.w	r9, [fp, #16]
 8002564:	f8cb 8010 	str.w	r8, [fp, #16]
 8002568:	60f8      	str	r0, [r7, #12]
 800256a:	f8cb 6010 	str.w	r6, [fp, #16]
 800256e:	2016      	movs	r0, #22
 8002570:	f8cb 4010 	str.w	r4, [fp, #16]
 8002574:	f8cb 5010 	str.w	r5, [fp, #16]
 8002578:	f7fe fa1c 	bl	80009b4 <lcd_wr_xdata>
 800257c:	2000      	movs	r0, #0
 800257e:	f7fe fa19 	bl	80009b4 <lcd_wr_xdata>
 8002582:	201c      	movs	r0, #28
 8002584:	f7fe fa16 	bl	80009b4 <lcd_wr_xdata>
 8002588:	2000      	movs	r0, #0
 800258a:	f7fe fa13 	bl	80009b4 <lcd_wr_xdata>
 800258e:	2022      	movs	r0, #34	@ 0x22
 8002590:	f7fe fa10 	bl	80009b4 <lcd_wr_xdata>
 8002594:	2000      	movs	r0, #0
 8002596:	f7fe fa0d 	bl	80009b4 <lcd_wr_xdata>
 800259a:	2036      	movs	r0, #54	@ 0x36
 800259c:	f7fe fa0a 	bl	80009b4 <lcd_wr_xdata>
 80025a0:	2000      	movs	r0, #0
 80025a2:	f7fe fa07 	bl	80009b4 <lcd_wr_xdata>
 80025a6:	2045      	movs	r0, #69	@ 0x45
 80025a8:	f7fe fa04 	bl	80009b4 <lcd_wr_xdata>
 80025ac:	2000      	movs	r0, #0
 80025ae:	f7fe fa01 	bl	80009b4 <lcd_wr_xdata>
 80025b2:	2052      	movs	r0, #82	@ 0x52
 80025b4:	f7fe f9fe 	bl	80009b4 <lcd_wr_xdata>
 80025b8:	2000      	movs	r0, #0
 80025ba:	f7fe f9fb 	bl	80009b4 <lcd_wr_xdata>
 80025be:	2064      	movs	r0, #100	@ 0x64
 80025c0:	f7fe f9f8 	bl	80009b4 <lcd_wr_xdata>
 80025c4:	2000      	movs	r0, #0
 80025c6:	f7fe f9f5 	bl	80009b4 <lcd_wr_xdata>
 80025ca:	207a      	movs	r0, #122	@ 0x7a
 80025cc:	f7fe f9f2 	bl	80009b4 <lcd_wr_xdata>
 80025d0:	2000      	movs	r0, #0
 80025d2:	f7fe f9ef 	bl	80009b4 <lcd_wr_xdata>
 80025d6:	208b      	movs	r0, #139	@ 0x8b
 80025d8:	f7fe f9ec 	bl	80009b4 <lcd_wr_xdata>
 80025dc:	2000      	movs	r0, #0
 80025de:	f7fe f9e9 	bl	80009b4 <lcd_wr_xdata>
 80025e2:	2099      	movs	r0, #153	@ 0x99
 80025e4:	f7fe f9e6 	bl	80009b4 <lcd_wr_xdata>
 80025e8:	2000      	movs	r0, #0
 80025ea:	f7fe f9e3 	bl	80009b4 <lcd_wr_xdata>
 80025ee:	20a8      	movs	r0, #168	@ 0xa8
 80025f0:	f7fe f9e0 	bl	80009b4 <lcd_wr_xdata>
 80025f4:	2000      	movs	r0, #0
 80025f6:	f7fe f9dd 	bl	80009b4 <lcd_wr_xdata>
 80025fa:	20b9      	movs	r0, #185	@ 0xb9
 80025fc:	f7fe f9da 	bl	80009b4 <lcd_wr_xdata>
 8002600:	2000      	movs	r0, #0
 8002602:	f7fe f9d7 	bl	80009b4 <lcd_wr_xdata>
 8002606:	4608      	mov	r0, r1
 8002608:	f7fe f9d4 	bl	80009b4 <lcd_wr_xdata>
 800260c:	2000      	movs	r0, #0
 800260e:	f7fe f9d1 	bl	80009b4 <lcd_wr_xdata>
 8002612:	20ca      	movs	r0, #202	@ 0xca
 8002614:	f7fe f9ce 	bl	80009b4 <lcd_wr_xdata>
 8002618:	2000      	movs	r0, #0
 800261a:	f7fe f9cb 	bl	80009b4 <lcd_wr_xdata>
 800261e:	20d2      	movs	r0, #210	@ 0xd2
 8002620:	f7fe f9c8 	bl	80009b4 <lcd_wr_xdata>
 8002624:	2000      	movs	r0, #0
 8002626:	f7fe f9c5 	bl	80009b4 <lcd_wr_xdata>
 800262a:	20d8      	movs	r0, #216	@ 0xd8
 800262c:	f7fe f9c2 	bl	80009b4 <lcd_wr_xdata>
 8002630:	2000      	movs	r0, #0
 8002632:	f7fe f9bf 	bl	80009b4 <lcd_wr_xdata>
 8002636:	4650      	mov	r0, sl
 8002638:	f7fe f9bc 	bl	80009b4 <lcd_wr_xdata>
 800263c:	2000      	movs	r0, #0
 800263e:	f7fe f9b9 	bl	80009b4 <lcd_wr_xdata>
 8002642:	20f3      	movs	r0, #243	@ 0xf3
 8002644:	f7fe f9b6 	bl	80009b4 <lcd_wr_xdata>
 8002648:	2000      	movs	r0, #0
 800264a:	f7fe f9b3 	bl	80009b4 <lcd_wr_xdata>
 800264e:	20e2      	movs	r0, #226	@ 0xe2
 8002650:	f8cb 9010 	str.w	r9, [fp, #16]
 8002654:	f8cb 8010 	str.w	r8, [fp, #16]
 8002658:	60f8      	str	r0, [r7, #12]
 800265a:	f8cb 6010 	str.w	r6, [fp, #16]
 800265e:	2005      	movs	r0, #5
 8002660:	f8cb 4010 	str.w	r4, [fp, #16]
 8002664:	f8cb 5010 	str.w	r5, [fp, #16]
 8002668:	f7fe f9a4 	bl	80009b4 <lcd_wr_xdata>
 800266c:	2000      	movs	r0, #0
 800266e:	f7fe f9a1 	bl	80009b4 <lcd_wr_xdata>
 8002672:	200b      	movs	r0, #11
 8002674:	f7fe f99e 	bl	80009b4 <lcd_wr_xdata>
 8002678:	2000      	movs	r0, #0
 800267a:	f7fe f99b 	bl	80009b4 <lcd_wr_xdata>
 800267e:	201b      	movs	r0, #27
 8002680:	f7fe f998 	bl	80009b4 <lcd_wr_xdata>
 8002684:	2000      	movs	r0, #0
 8002686:	f7fe f995 	bl	80009b4 <lcd_wr_xdata>
 800268a:	2034      	movs	r0, #52	@ 0x34
 800268c:	f7fe f992 	bl	80009b4 <lcd_wr_xdata>
 8002690:	2000      	movs	r0, #0
 8002692:	f7fe f98f 	bl	80009b4 <lcd_wr_xdata>
 8002696:	2044      	movs	r0, #68	@ 0x44
 8002698:	f7fe f98c 	bl	80009b4 <lcd_wr_xdata>
 800269c:	2000      	movs	r0, #0
 800269e:	f7fe f989 	bl	80009b4 <lcd_wr_xdata>
 80026a2:	204f      	movs	r0, #79	@ 0x4f
 80026a4:	f7fe f986 	bl	80009b4 <lcd_wr_xdata>
 80026a8:	2000      	movs	r0, #0
 80026aa:	f7fe f983 	bl	80009b4 <lcd_wr_xdata>
 80026ae:	2061      	movs	r0, #97	@ 0x61
 80026b0:	f7fe f980 	bl	80009b4 <lcd_wr_xdata>
 80026b4:	2000      	movs	r0, #0
 80026b6:	f7fe f97d 	bl	80009b4 <lcd_wr_xdata>
 80026ba:	2079      	movs	r0, #121	@ 0x79
 80026bc:	f7fe f97a 	bl	80009b4 <lcd_wr_xdata>
 80026c0:	2000      	movs	r0, #0
 80026c2:	f7fe f977 	bl	80009b4 <lcd_wr_xdata>
 80026c6:	2088      	movs	r0, #136	@ 0x88
 80026c8:	f7fe f974 	bl	80009b4 <lcd_wr_xdata>
 80026cc:	2000      	movs	r0, #0
 80026ce:	f7fe f971 	bl	80009b4 <lcd_wr_xdata>
 80026d2:	2097      	movs	r0, #151	@ 0x97
 80026d4:	f7fe f96e 	bl	80009b4 <lcd_wr_xdata>
 80026d8:	2000      	movs	r0, #0
 80026da:	f7fe f96b 	bl	80009b4 <lcd_wr_xdata>
 80026de:	20a6      	movs	r0, #166	@ 0xa6
 80026e0:	f7fe f968 	bl	80009b4 <lcd_wr_xdata>
 80026e4:	2000      	movs	r0, #0
 80026e6:	f7fe f965 	bl	80009b4 <lcd_wr_xdata>
 80026ea:	20b7      	movs	r0, #183	@ 0xb7
 80026ec:	f7fe f962 	bl	80009b4 <lcd_wr_xdata>
 80026f0:	2000      	movs	r0, #0
 80026f2:	f7fe f95f 	bl	80009b4 <lcd_wr_xdata>
 80026f6:	20c2      	movs	r0, #194	@ 0xc2
 80026f8:	f7fe f95c 	bl	80009b4 <lcd_wr_xdata>
 80026fc:	2000      	movs	r0, #0
 80026fe:	f7fe f959 	bl	80009b4 <lcd_wr_xdata>
 8002702:	20c7      	movs	r0, #199	@ 0xc7
 8002704:	f7fe f956 	bl	80009b4 <lcd_wr_xdata>
 8002708:	2000      	movs	r0, #0
 800270a:	f7fe f953 	bl	80009b4 <lcd_wr_xdata>
 800270e:	20d1      	movs	r0, #209	@ 0xd1
 8002710:	f7fe f950 	bl	80009b4 <lcd_wr_xdata>
 8002714:	2000      	movs	r0, #0
 8002716:	f7fe f94d 	bl	80009b4 <lcd_wr_xdata>
 800271a:	20d6      	movs	r0, #214	@ 0xd6
 800271c:	f7fe f94a 	bl	80009b4 <lcd_wr_xdata>
 8002720:	2000      	movs	r0, #0
 8002722:	f7fe f947 	bl	80009b4 <lcd_wr_xdata>
 8002726:	20dd      	movs	r0, #221	@ 0xdd
 8002728:	f7fe f944 	bl	80009b4 <lcd_wr_xdata>
 800272c:	2000      	movs	r0, #0
 800272e:	f7fe f941 	bl	80009b4 <lcd_wr_xdata>
 8002732:	20f3      	movs	r0, #243	@ 0xf3
 8002734:	f7fe f93e 	bl	80009b4 <lcd_wr_xdata>
 8002738:	2000      	movs	r0, #0
 800273a:	f7fe f93b 	bl	80009b4 <lcd_wr_xdata>
 800273e:	20e3      	movs	r0, #227	@ 0xe3
 8002740:	f8cb 9010 	str.w	r9, [fp, #16]
 8002744:	f8cb 8010 	str.w	r8, [fp, #16]
 8002748:	60f8      	str	r0, [r7, #12]
 800274a:	f8cb 6010 	str.w	r6, [fp, #16]
 800274e:	2005      	movs	r0, #5
 8002750:	f8cb 4010 	str.w	r4, [fp, #16]
 8002754:	f8cb 5010 	str.w	r5, [fp, #16]
 8002758:	f7fe f92c 	bl	80009b4 <lcd_wr_xdata>
 800275c:	2000      	movs	r0, #0
 800275e:	f7fe f929 	bl	80009b4 <lcd_wr_xdata>
 8002762:	200a      	movs	r0, #10
 8002764:	f7fe f926 	bl	80009b4 <lcd_wr_xdata>
 8002768:	2000      	movs	r0, #0
 800276a:	f7fe f923 	bl	80009b4 <lcd_wr_xdata>
 800276e:	201c      	movs	r0, #28
 8002770:	f7fe f920 	bl	80009b4 <lcd_wr_xdata>
 8002774:	2000      	movs	r0, #0
 8002776:	f7fe f91d 	bl	80009b4 <lcd_wr_xdata>
 800277a:	2033      	movs	r0, #51	@ 0x33
 800277c:	f7fe f91a 	bl	80009b4 <lcd_wr_xdata>
 8002780:	2000      	movs	r0, #0
 8002782:	f7fe f917 	bl	80009b4 <lcd_wr_xdata>
 8002786:	2044      	movs	r0, #68	@ 0x44
 8002788:	f7fe f914 	bl	80009b4 <lcd_wr_xdata>
 800278c:	2000      	movs	r0, #0
 800278e:	f7fe f911 	bl	80009b4 <lcd_wr_xdata>
 8002792:	2050      	movs	r0, #80	@ 0x50
 8002794:	f7fe f90e 	bl	80009b4 <lcd_wr_xdata>
 8002798:	2000      	movs	r0, #0
 800279a:	f7fe f90b 	bl	80009b4 <lcd_wr_xdata>
 800279e:	2062      	movs	r0, #98	@ 0x62
 80027a0:	f7fe f908 	bl	80009b4 <lcd_wr_xdata>
 80027a4:	2000      	movs	r0, #0
 80027a6:	f7fe f905 	bl	80009b4 <lcd_wr_xdata>
 80027aa:	2078      	movs	r0, #120	@ 0x78
 80027ac:	f7fe f902 	bl	80009b4 <lcd_wr_xdata>
 80027b0:	2000      	movs	r0, #0
 80027b2:	f7fe f8ff 	bl	80009b4 <lcd_wr_xdata>
 80027b6:	2088      	movs	r0, #136	@ 0x88
 80027b8:	f7fe f8fc 	bl	80009b4 <lcd_wr_xdata>
 80027bc:	2000      	movs	r0, #0
 80027be:	f7fe f8f9 	bl	80009b4 <lcd_wr_xdata>
 80027c2:	2097      	movs	r0, #151	@ 0x97
 80027c4:	f7fe f8f6 	bl	80009b4 <lcd_wr_xdata>
 80027c8:	2000      	movs	r0, #0
 80027ca:	f7fe f8f3 	bl	80009b4 <lcd_wr_xdata>
 80027ce:	20a6      	movs	r0, #166	@ 0xa6
 80027d0:	f7fe f8f0 	bl	80009b4 <lcd_wr_xdata>
 80027d4:	2000      	movs	r0, #0
 80027d6:	f7fe f8ed 	bl	80009b4 <lcd_wr_xdata>
 80027da:	20b7      	movs	r0, #183	@ 0xb7
 80027dc:	f7fe f8ea 	bl	80009b4 <lcd_wr_xdata>
 80027e0:	2000      	movs	r0, #0
 80027e2:	f7fe f8e7 	bl	80009b4 <lcd_wr_xdata>
 80027e6:	20c2      	movs	r0, #194	@ 0xc2
 80027e8:	f7fe f8e4 	bl	80009b4 <lcd_wr_xdata>
 80027ec:	2000      	movs	r0, #0
 80027ee:	f7fe f8e1 	bl	80009b4 <lcd_wr_xdata>
 80027f2:	20c7      	movs	r0, #199	@ 0xc7
 80027f4:	f7fe f8de 	bl	80009b4 <lcd_wr_xdata>
 80027f8:	2000      	movs	r0, #0
 80027fa:	f7fe f8db 	bl	80009b4 <lcd_wr_xdata>
 80027fe:	20d1      	movs	r0, #209	@ 0xd1
 8002800:	f7fe f8d8 	bl	80009b4 <lcd_wr_xdata>
 8002804:	2000      	movs	r0, #0
 8002806:	f7fe f8d5 	bl	80009b4 <lcd_wr_xdata>
 800280a:	20d5      	movs	r0, #213	@ 0xd5
 800280c:	f7fe f8d2 	bl	80009b4 <lcd_wr_xdata>
 8002810:	2000      	movs	r0, #0
 8002812:	f7fe f8cf 	bl	80009b4 <lcd_wr_xdata>
 8002816:	20dd      	movs	r0, #221	@ 0xdd
 8002818:	f7fe f8cc 	bl	80009b4 <lcd_wr_xdata>
 800281c:	2000      	movs	r0, #0
 800281e:	f7fe f8c9 	bl	80009b4 <lcd_wr_xdata>
 8002822:	20f3      	movs	r0, #243	@ 0xf3
 8002824:	f7fe f8c6 	bl	80009b4 <lcd_wr_xdata>
 8002828:	2000      	movs	r0, #0
 800282a:	f7fe f8c3 	bl	80009b4 <lcd_wr_xdata>
 800282e:	20e4      	movs	r0, #228	@ 0xe4
 8002830:	f8cb 9010 	str.w	r9, [fp, #16]
 8002834:	f8cb 8010 	str.w	r8, [fp, #16]
 8002838:	60f8      	str	r0, [r7, #12]
 800283a:	f8cb 6010 	str.w	r6, [fp, #16]
 800283e:	2001      	movs	r0, #1
 8002840:	f8cb 4010 	str.w	r4, [fp, #16]
 8002844:	f8cb 5010 	str.w	r5, [fp, #16]
 8002848:	f7fe f8b4 	bl	80009b4 <lcd_wr_xdata>
 800284c:	2000      	movs	r0, #0
 800284e:	f7fe f8b1 	bl	80009b4 <lcd_wr_xdata>
 8002852:	2001      	movs	r0, #1
 8002854:	f7fe f8ae 	bl	80009b4 <lcd_wr_xdata>
 8002858:	2000      	movs	r0, #0
 800285a:	f7fe f8ab 	bl	80009b4 <lcd_wr_xdata>
 800285e:	2002      	movs	r0, #2
 8002860:	f7fe f8a8 	bl	80009b4 <lcd_wr_xdata>
 8002864:	2000      	movs	r0, #0
 8002866:	f7fe f8a5 	bl	80009b4 <lcd_wr_xdata>
 800286a:	202a      	movs	r0, #42	@ 0x2a
 800286c:	f7fe f8a2 	bl	80009b4 <lcd_wr_xdata>
 8002870:	2000      	movs	r0, #0
 8002872:	f7fe f89f 	bl	80009b4 <lcd_wr_xdata>
 8002876:	203c      	movs	r0, #60	@ 0x3c
 8002878:	f7fe f89c 	bl	80009b4 <lcd_wr_xdata>
 800287c:	2000      	movs	r0, #0
 800287e:	f7fe f899 	bl	80009b4 <lcd_wr_xdata>
 8002882:	204b      	movs	r0, #75	@ 0x4b
 8002884:	f7fe f896 	bl	80009b4 <lcd_wr_xdata>
 8002888:	2000      	movs	r0, #0
 800288a:	f7fe f893 	bl	80009b4 <lcd_wr_xdata>
 800288e:	205d      	movs	r0, #93	@ 0x5d
 8002890:	f7fe f890 	bl	80009b4 <lcd_wr_xdata>
 8002894:	2000      	movs	r0, #0
 8002896:	f7fe f88d 	bl	80009b4 <lcd_wr_xdata>
 800289a:	2074      	movs	r0, #116	@ 0x74
 800289c:	f7fe f88a 	bl	80009b4 <lcd_wr_xdata>
 80028a0:	2000      	movs	r0, #0
 80028a2:	f7fe f887 	bl	80009b4 <lcd_wr_xdata>
 80028a6:	2084      	movs	r0, #132	@ 0x84
 80028a8:	f7fe f884 	bl	80009b4 <lcd_wr_xdata>
 80028ac:	2000      	movs	r0, #0
 80028ae:	f7fe f881 	bl	80009b4 <lcd_wr_xdata>
 80028b2:	2093      	movs	r0, #147	@ 0x93
 80028b4:	f7fe f87e 	bl	80009b4 <lcd_wr_xdata>
 80028b8:	2000      	movs	r0, #0
 80028ba:	f7fe f87b 	bl	80009b4 <lcd_wr_xdata>
 80028be:	20a2      	movs	r0, #162	@ 0xa2
 80028c0:	f7fe f878 	bl	80009b4 <lcd_wr_xdata>
 80028c4:	2000      	movs	r0, #0
 80028c6:	f7fe f875 	bl	80009b4 <lcd_wr_xdata>
 80028ca:	22b3      	movs	r2, #179	@ 0xb3
 80028cc:	4610      	mov	r0, r2
 80028ce:	f7fe f871 	bl	80009b4 <lcd_wr_xdata>
 80028d2:	2000      	movs	r0, #0
 80028d4:	f7fe f86e 	bl	80009b4 <lcd_wr_xdata>
 80028d8:	20be      	movs	r0, #190	@ 0xbe
 80028da:	f7fe f86b 	bl	80009b4 <lcd_wr_xdata>
 80028de:	2000      	movs	r0, #0
 80028e0:	f7fe f868 	bl	80009b4 <lcd_wr_xdata>
 80028e4:	4608      	mov	r0, r1
 80028e6:	f7fe f865 	bl	80009b4 <lcd_wr_xdata>
 80028ea:	2000      	movs	r0, #0
 80028ec:	f7fe f862 	bl	80009b4 <lcd_wr_xdata>
 80028f0:	20cd      	movs	r0, #205	@ 0xcd
 80028f2:	f7fe f85f 	bl	80009b4 <lcd_wr_xdata>
 80028f6:	2000      	movs	r0, #0
 80028f8:	f7fe f85c 	bl	80009b4 <lcd_wr_xdata>
 80028fc:	20d3      	movs	r0, #211	@ 0xd3
 80028fe:	f7fe f859 	bl	80009b4 <lcd_wr_xdata>
 8002902:	2000      	movs	r0, #0
 8002904:	f7fe f856 	bl	80009b4 <lcd_wr_xdata>
 8002908:	20dd      	movs	r0, #221	@ 0xdd
 800290a:	f7fe f853 	bl	80009b4 <lcd_wr_xdata>
 800290e:	2000      	movs	r0, #0
 8002910:	f7fe f850 	bl	80009b4 <lcd_wr_xdata>
 8002914:	20f3      	movs	r0, #243	@ 0xf3
 8002916:	f7fe f84d 	bl	80009b4 <lcd_wr_xdata>
 800291a:	2000      	movs	r0, #0
 800291c:	f7fe f84a 	bl	80009b4 <lcd_wr_xdata>
 8002920:	22e5      	movs	r2, #229	@ 0xe5
 8002922:	f8cb 9010 	str.w	r9, [fp, #16]
 8002926:	f8cb 8010 	str.w	r8, [fp, #16]
 800292a:	60fa      	str	r2, [r7, #12]
 800292c:	f8cb 6010 	str.w	r6, [fp, #16]
 8002930:	f8cb 4010 	str.w	r4, [fp, #16]
 8002934:	f8cb 5010 	str.w	r5, [fp, #16]
 8002938:	f7fe f83c 	bl	80009b4 <lcd_wr_xdata>
 800293c:	f7fe f83a 	bl	80009b4 <lcd_wr_xdata>
 8002940:	f7fe f838 	bl	80009b4 <lcd_wr_xdata>
 8002944:	f7fe f836 	bl	80009b4 <lcd_wr_xdata>
 8002948:	2002      	movs	r0, #2
 800294a:	f7fe f833 	bl	80009b4 <lcd_wr_xdata>
 800294e:	2000      	movs	r0, #0
 8002950:	f7fe f830 	bl	80009b4 <lcd_wr_xdata>
 8002954:	2029      	movs	r0, #41	@ 0x29
 8002956:	f7fe f82d 	bl	80009b4 <lcd_wr_xdata>
 800295a:	2000      	movs	r0, #0
 800295c:	f7fe f82a 	bl	80009b4 <lcd_wr_xdata>
 8002960:	203c      	movs	r0, #60	@ 0x3c
 8002962:	f7fe f827 	bl	80009b4 <lcd_wr_xdata>
 8002966:	2000      	movs	r0, #0
 8002968:	f7fe f824 	bl	80009b4 <lcd_wr_xdata>
 800296c:	204b      	movs	r0, #75	@ 0x4b
 800296e:	f7fe f821 	bl	80009b4 <lcd_wr_xdata>
 8002972:	2000      	movs	r0, #0
 8002974:	f7fe f81e 	bl	80009b4 <lcd_wr_xdata>
 8002978:	205d      	movs	r0, #93	@ 0x5d
 800297a:	f7fe f81b 	bl	80009b4 <lcd_wr_xdata>
 800297e:	2000      	movs	r0, #0
 8002980:	f7fe f818 	bl	80009b4 <lcd_wr_xdata>
 8002984:	2074      	movs	r0, #116	@ 0x74
 8002986:	f7fe f815 	bl	80009b4 <lcd_wr_xdata>
 800298a:	2000      	movs	r0, #0
 800298c:	f7fe f812 	bl	80009b4 <lcd_wr_xdata>
 8002990:	2084      	movs	r0, #132	@ 0x84
 8002992:	f7fe f80f 	bl	80009b4 <lcd_wr_xdata>
 8002996:	2000      	movs	r0, #0
 8002998:	f7fe f80c 	bl	80009b4 <lcd_wr_xdata>
 800299c:	2093      	movs	r0, #147	@ 0x93
 800299e:	f7fe f809 	bl	80009b4 <lcd_wr_xdata>
 80029a2:	2000      	movs	r0, #0
 80029a4:	f7fe f806 	bl	80009b4 <lcd_wr_xdata>
 80029a8:	20a2      	movs	r0, #162	@ 0xa2
 80029aa:	f7fe f803 	bl	80009b4 <lcd_wr_xdata>
 80029ae:	2000      	movs	r0, #0
 80029b0:	f7fe f800 	bl	80009b4 <lcd_wr_xdata>
 80029b4:	20b3      	movs	r0, #179	@ 0xb3
 80029b6:	f7fd fffd 	bl	80009b4 <lcd_wr_xdata>
 80029ba:	2000      	movs	r0, #0
 80029bc:	f7fd fffa 	bl	80009b4 <lcd_wr_xdata>
 80029c0:	20be      	movs	r0, #190	@ 0xbe
 80029c2:	f7fd fff7 	bl	80009b4 <lcd_wr_xdata>
 80029c6:	2000      	movs	r0, #0
 80029c8:	f7fd fff4 	bl	80009b4 <lcd_wr_xdata>
 80029cc:	4608      	mov	r0, r1
 80029ce:	f7fd fff1 	bl	80009b4 <lcd_wr_xdata>
 80029d2:	2000      	movs	r0, #0
 80029d4:	f7fd ffee 	bl	80009b4 <lcd_wr_xdata>
 80029d8:	20cd      	movs	r0, #205	@ 0xcd
 80029da:	f7fd ffeb 	bl	80009b4 <lcd_wr_xdata>
 80029de:	2000      	movs	r0, #0
 80029e0:	f7fd ffe8 	bl	80009b4 <lcd_wr_xdata>
 80029e4:	20d3      	movs	r0, #211	@ 0xd3
 80029e6:	f7fd ffe5 	bl	80009b4 <lcd_wr_xdata>
 80029ea:	2000      	movs	r0, #0
 80029ec:	f7fd ffe2 	bl	80009b4 <lcd_wr_xdata>
 80029f0:	20dc      	movs	r0, #220	@ 0xdc
 80029f2:	f7fd ffdf 	bl	80009b4 <lcd_wr_xdata>
 80029f6:	2000      	movs	r0, #0
 80029f8:	f7fd ffdc 	bl	80009b4 <lcd_wr_xdata>
 80029fc:	20f3      	movs	r0, #243	@ 0xf3
 80029fe:	f7fd ffd9 	bl	80009b4 <lcd_wr_xdata>
 8002a02:	2000      	movs	r0, #0
 8002a04:	f7fd ffd6 	bl	80009b4 <lcd_wr_xdata>
 8002a08:	22e6      	movs	r2, #230	@ 0xe6
 8002a0a:	f8cb 9010 	str.w	r9, [fp, #16]
 8002a0e:	2011      	movs	r0, #17
 8002a10:	f8cb 8010 	str.w	r8, [fp, #16]
 8002a14:	60fa      	str	r2, [r7, #12]
 8002a16:	f8cb 6010 	str.w	r6, [fp, #16]
 8002a1a:	f8cb 4010 	str.w	r4, [fp, #16]
 8002a1e:	f8cb 5010 	str.w	r5, [fp, #16]
 8002a22:	f7fd ffc7 	bl	80009b4 <lcd_wr_xdata>
 8002a26:	2000      	movs	r0, #0
 8002a28:	f7fd ffc4 	bl	80009b4 <lcd_wr_xdata>
 8002a2c:	2034      	movs	r0, #52	@ 0x34
 8002a2e:	f7fd ffc1 	bl	80009b4 <lcd_wr_xdata>
 8002a32:	2000      	movs	r0, #0
 8002a34:	f7fd ffbe 	bl	80009b4 <lcd_wr_xdata>
 8002a38:	2056      	movs	r0, #86	@ 0x56
 8002a3a:	f7fd ffbb 	bl	80009b4 <lcd_wr_xdata>
 8002a3e:	2000      	movs	r0, #0
 8002a40:	f7fd ffb8 	bl	80009b4 <lcd_wr_xdata>
 8002a44:	2076      	movs	r0, #118	@ 0x76
 8002a46:	f7fd ffb5 	bl	80009b4 <lcd_wr_xdata>
 8002a4a:	2000      	movs	r0, #0
 8002a4c:	f7fd ffb2 	bl	80009b4 <lcd_wr_xdata>
 8002a50:	2077      	movs	r0, #119	@ 0x77
 8002a52:	f7fd ffaf 	bl	80009b4 <lcd_wr_xdata>
 8002a56:	2000      	movs	r0, #0
 8002a58:	f7fd ffac 	bl	80009b4 <lcd_wr_xdata>
 8002a5c:	2066      	movs	r0, #102	@ 0x66
 8002a5e:	f7fd ffa9 	bl	80009b4 <lcd_wr_xdata>
 8002a62:	2000      	movs	r0, #0
 8002a64:	f7fd ffa6 	bl	80009b4 <lcd_wr_xdata>
 8002a68:	2088      	movs	r0, #136	@ 0x88
 8002a6a:	f7fd ffa3 	bl	80009b4 <lcd_wr_xdata>
 8002a6e:	2000      	movs	r0, #0
 8002a70:	f7fd ffa0 	bl	80009b4 <lcd_wr_xdata>
 8002a74:	2099      	movs	r0, #153	@ 0x99
 8002a76:	f7fd ff9d 	bl	80009b4 <lcd_wr_xdata>
 8002a7a:	2000      	movs	r0, #0
 8002a7c:	f7fd ff9a 	bl	80009b4 <lcd_wr_xdata>
 8002a80:	20bb      	movs	r0, #187	@ 0xbb
 8002a82:	f7fd ff97 	bl	80009b4 <lcd_wr_xdata>
 8002a86:	2000      	movs	r0, #0
 8002a88:	f7fd ff94 	bl	80009b4 <lcd_wr_xdata>
 8002a8c:	2099      	movs	r0, #153	@ 0x99
 8002a8e:	f7fd ff91 	bl	80009b4 <lcd_wr_xdata>
 8002a92:	2000      	movs	r0, #0
 8002a94:	f7fd ff8e 	bl	80009b4 <lcd_wr_xdata>
 8002a98:	2066      	movs	r0, #102	@ 0x66
 8002a9a:	f7fd ff8b 	bl	80009b4 <lcd_wr_xdata>
 8002a9e:	2000      	movs	r0, #0
 8002aa0:	f7fd ff88 	bl	80009b4 <lcd_wr_xdata>
 8002aa4:	2055      	movs	r0, #85	@ 0x55
 8002aa6:	f7fd ff85 	bl	80009b4 <lcd_wr_xdata>
 8002aaa:	2000      	movs	r0, #0
 8002aac:	f7fd ff82 	bl	80009b4 <lcd_wr_xdata>
 8002ab0:	2055      	movs	r0, #85	@ 0x55
 8002ab2:	f7fd ff7f 	bl	80009b4 <lcd_wr_xdata>
 8002ab6:	2000      	movs	r0, #0
 8002ab8:	f7fd ff7c 	bl	80009b4 <lcd_wr_xdata>
 8002abc:	2045      	movs	r0, #69	@ 0x45
 8002abe:	f7fd ff79 	bl	80009b4 <lcd_wr_xdata>
 8002ac2:	2000      	movs	r0, #0
 8002ac4:	f7fd ff76 	bl	80009b4 <lcd_wr_xdata>
 8002ac8:	2043      	movs	r0, #67	@ 0x43
 8002aca:	f7fd ff73 	bl	80009b4 <lcd_wr_xdata>
 8002ace:	2000      	movs	r0, #0
 8002ad0:	f7fd ff70 	bl	80009b4 <lcd_wr_xdata>
 8002ad4:	2044      	movs	r0, #68	@ 0x44
 8002ad6:	f7fd ff6d 	bl	80009b4 <lcd_wr_xdata>
 8002ada:	2000      	movs	r0, #0
 8002adc:	f7fd ff6a 	bl	80009b4 <lcd_wr_xdata>
 8002ae0:	22e7      	movs	r2, #231	@ 0xe7
 8002ae2:	f8cb 9010 	str.w	r9, [fp, #16]
 8002ae6:	2032      	movs	r0, #50	@ 0x32
 8002ae8:	f8cb 8010 	str.w	r8, [fp, #16]
 8002aec:	60fa      	str	r2, [r7, #12]
 8002aee:	f8cb 6010 	str.w	r6, [fp, #16]
 8002af2:	f8cb 4010 	str.w	r4, [fp, #16]
 8002af6:	f8cb 5010 	str.w	r5, [fp, #16]
 8002afa:	f7fd ff5b 	bl	80009b4 <lcd_wr_xdata>
 8002afe:	2000      	movs	r0, #0
 8002b00:	f7fd ff58 	bl	80009b4 <lcd_wr_xdata>
 8002b04:	2055      	movs	r0, #85	@ 0x55
 8002b06:	f7fd ff55 	bl	80009b4 <lcd_wr_xdata>
 8002b0a:	2000      	movs	r0, #0
 8002b0c:	f7fd ff52 	bl	80009b4 <lcd_wr_xdata>
 8002b10:	2076      	movs	r0, #118	@ 0x76
 8002b12:	f7fd ff4f 	bl	80009b4 <lcd_wr_xdata>
 8002b16:	2000      	movs	r0, #0
 8002b18:	f7fd ff4c 	bl	80009b4 <lcd_wr_xdata>
 8002b1c:	2066      	movs	r0, #102	@ 0x66
 8002b1e:	f7fd ff49 	bl	80009b4 <lcd_wr_xdata>
 8002b22:	2000      	movs	r0, #0
 8002b24:	f7fd ff46 	bl	80009b4 <lcd_wr_xdata>
 8002b28:	2067      	movs	r0, #103	@ 0x67
 8002b2a:	f7fd ff43 	bl	80009b4 <lcd_wr_xdata>
 8002b2e:	2000      	movs	r0, #0
 8002b30:	f7fd ff40 	bl	80009b4 <lcd_wr_xdata>
 8002b34:	2067      	movs	r0, #103	@ 0x67
 8002b36:	f7fd ff3d 	bl	80009b4 <lcd_wr_xdata>
 8002b3a:	2000      	movs	r0, #0
 8002b3c:	f7fd ff3a 	bl	80009b4 <lcd_wr_xdata>
 8002b40:	2087      	movs	r0, #135	@ 0x87
 8002b42:	f7fd ff37 	bl	80009b4 <lcd_wr_xdata>
 8002b46:	2000      	movs	r0, #0
 8002b48:	f7fd ff34 	bl	80009b4 <lcd_wr_xdata>
 8002b4c:	2099      	movs	r0, #153	@ 0x99
 8002b4e:	f7fd ff31 	bl	80009b4 <lcd_wr_xdata>
 8002b52:	2000      	movs	r0, #0
 8002b54:	f7fd ff2e 	bl	80009b4 <lcd_wr_xdata>
 8002b58:	20bb      	movs	r0, #187	@ 0xbb
 8002b5a:	f7fd ff2b 	bl	80009b4 <lcd_wr_xdata>
 8002b5e:	2000      	movs	r0, #0
 8002b60:	f7fd ff28 	bl	80009b4 <lcd_wr_xdata>
 8002b64:	2099      	movs	r0, #153	@ 0x99
 8002b66:	f7fd ff25 	bl	80009b4 <lcd_wr_xdata>
 8002b6a:	2000      	movs	r0, #0
 8002b6c:	f7fd ff22 	bl	80009b4 <lcd_wr_xdata>
 8002b70:	2077      	movs	r0, #119	@ 0x77
 8002b72:	f7fd ff1f 	bl	80009b4 <lcd_wr_xdata>
 8002b76:	2000      	movs	r0, #0
 8002b78:	f7fd ff1c 	bl	80009b4 <lcd_wr_xdata>
 8002b7c:	2044      	movs	r0, #68	@ 0x44
 8002b7e:	f7fd ff19 	bl	80009b4 <lcd_wr_xdata>
 8002b82:	2000      	movs	r0, #0
 8002b84:	f7fd ff16 	bl	80009b4 <lcd_wr_xdata>
 8002b88:	2056      	movs	r0, #86	@ 0x56
 8002b8a:	f7fd ff13 	bl	80009b4 <lcd_wr_xdata>
 8002b8e:	2000      	movs	r0, #0
 8002b90:	f7fd ff10 	bl	80009b4 <lcd_wr_xdata>
 8002b94:	2023      	movs	r0, #35	@ 0x23
 8002b96:	f7fd ff0d 	bl	80009b4 <lcd_wr_xdata>
 8002b9a:	2000      	movs	r0, #0
 8002b9c:	f7fd ff0a 	bl	80009b4 <lcd_wr_xdata>
 8002ba0:	2033      	movs	r0, #51	@ 0x33
 8002ba2:	f7fd ff07 	bl	80009b4 <lcd_wr_xdata>
 8002ba6:	2000      	movs	r0, #0
 8002ba8:	f7fd ff04 	bl	80009b4 <lcd_wr_xdata>
 8002bac:	2045      	movs	r0, #69	@ 0x45
 8002bae:	f7fd ff01 	bl	80009b4 <lcd_wr_xdata>
 8002bb2:	2000      	movs	r0, #0
 8002bb4:	f7fd fefe 	bl	80009b4 <lcd_wr_xdata>
 8002bb8:	22e8      	movs	r2, #232	@ 0xe8
 8002bba:	f8cb 9010 	str.w	r9, [fp, #16]
 8002bbe:	f8cb 8010 	str.w	r8, [fp, #16]
 8002bc2:	60fa      	str	r2, [r7, #12]
 8002bc4:	f8cb 6010 	str.w	r6, [fp, #16]
 8002bc8:	f8cb 4010 	str.w	r4, [fp, #16]
 8002bcc:	f8cb 5010 	str.w	r5, [fp, #16]
 8002bd0:	f7fd fef0 	bl	80009b4 <lcd_wr_xdata>
 8002bd4:	f7fd feee 	bl	80009b4 <lcd_wr_xdata>
 8002bd8:	2099      	movs	r0, #153	@ 0x99
 8002bda:	f7fd feeb 	bl	80009b4 <lcd_wr_xdata>
 8002bde:	2000      	movs	r0, #0
 8002be0:	f7fd fee8 	bl	80009b4 <lcd_wr_xdata>
 8002be4:	2087      	movs	r0, #135	@ 0x87
 8002be6:	f7fd fee5 	bl	80009b4 <lcd_wr_xdata>
 8002bea:	2000      	movs	r0, #0
 8002bec:	f7fd fee2 	bl	80009b4 <lcd_wr_xdata>
 8002bf0:	2088      	movs	r0, #136	@ 0x88
 8002bf2:	f7fd fedf 	bl	80009b4 <lcd_wr_xdata>
 8002bf6:	2000      	movs	r0, #0
 8002bf8:	f7fd fedc 	bl	80009b4 <lcd_wr_xdata>
 8002bfc:	2077      	movs	r0, #119	@ 0x77
 8002bfe:	f7fd fed9 	bl	80009b4 <lcd_wr_xdata>
 8002c02:	2000      	movs	r0, #0
 8002c04:	f7fd fed6 	bl	80009b4 <lcd_wr_xdata>
 8002c08:	2066      	movs	r0, #102	@ 0x66
 8002c0a:	f7fd fed3 	bl	80009b4 <lcd_wr_xdata>
 8002c0e:	2000      	movs	r0, #0
 8002c10:	f7fd fed0 	bl	80009b4 <lcd_wr_xdata>
 8002c14:	2088      	movs	r0, #136	@ 0x88
 8002c16:	f7fd fecd 	bl	80009b4 <lcd_wr_xdata>
 8002c1a:	2000      	movs	r0, #0
 8002c1c:	f7fd feca 	bl	80009b4 <lcd_wr_xdata>
 8002c20:	20aa      	movs	r0, #170	@ 0xaa
 8002c22:	f7fd fec7 	bl	80009b4 <lcd_wr_xdata>
 8002c26:	2000      	movs	r0, #0
 8002c28:	f7fd fec4 	bl	80009b4 <lcd_wr_xdata>
 8002c2c:	20bb      	movs	r0, #187	@ 0xbb
 8002c2e:	f7fd fec1 	bl	80009b4 <lcd_wr_xdata>
 8002c32:	2000      	movs	r0, #0
 8002c34:	f7fd febe 	bl	80009b4 <lcd_wr_xdata>
 8002c38:	2099      	movs	r0, #153	@ 0x99
 8002c3a:	f7fd febb 	bl	80009b4 <lcd_wr_xdata>
 8002c3e:	2000      	movs	r0, #0
 8002c40:	f7fd feb8 	bl	80009b4 <lcd_wr_xdata>
 8002c44:	2066      	movs	r0, #102	@ 0x66
 8002c46:	f7fd feb5 	bl	80009b4 <lcd_wr_xdata>
 8002c4a:	2000      	movs	r0, #0
 8002c4c:	f7fd feb2 	bl	80009b4 <lcd_wr_xdata>
 8002c50:	2055      	movs	r0, #85	@ 0x55
 8002c52:	f7fd feaf 	bl	80009b4 <lcd_wr_xdata>
 8002c56:	2000      	movs	r0, #0
 8002c58:	f7fd feac 	bl	80009b4 <lcd_wr_xdata>
 8002c5c:	2055      	movs	r0, #85	@ 0x55
 8002c5e:	f7fd fea9 	bl	80009b4 <lcd_wr_xdata>
 8002c62:	2000      	movs	r0, #0
 8002c64:	f7fd fea6 	bl	80009b4 <lcd_wr_xdata>
 8002c68:	2044      	movs	r0, #68	@ 0x44
 8002c6a:	f7fd fea3 	bl	80009b4 <lcd_wr_xdata>
 8002c6e:	2000      	movs	r0, #0
 8002c70:	f7fd fea0 	bl	80009b4 <lcd_wr_xdata>
 8002c74:	2044      	movs	r0, #68	@ 0x44
 8002c76:	f7fd fe9d 	bl	80009b4 <lcd_wr_xdata>
 8002c7a:	2000      	movs	r0, #0
 8002c7c:	f7fd fe9a 	bl	80009b4 <lcd_wr_xdata>
 8002c80:	2055      	movs	r0, #85	@ 0x55
 8002c82:	f7fd fe97 	bl	80009b4 <lcd_wr_xdata>
 8002c86:	2000      	movs	r0, #0
 8002c88:	f7fd fe94 	bl	80009b4 <lcd_wr_xdata>
 8002c8c:	22e9      	movs	r2, #233	@ 0xe9
 8002c8e:	f8cb 9010 	str.w	r9, [fp, #16]
 8002c92:	20aa      	movs	r0, #170	@ 0xaa
 8002c94:	f8cb 8010 	str.w	r8, [fp, #16]
 8002c98:	60fa      	str	r2, [r7, #12]
 8002c9a:	f8cb 6010 	str.w	r6, [fp, #16]
 8002c9e:	f8cb 4010 	str.w	r4, [fp, #16]
 8002ca2:	f8cb 5010 	str.w	r5, [fp, #16]
 8002ca6:	f7fd fe85 	bl	80009b4 <lcd_wr_xdata>
 8002caa:	2000      	movs	r0, #0
 8002cac:	f7fd fe82 	bl	80009b4 <lcd_wr_xdata>
 8002cb0:	4682      	mov	sl, r0
 8002cb2:	f7fd fe7f 	bl	80009b4 <lcd_wr_xdata>
 8002cb6:	f7fd fe7d 	bl	80009b4 <lcd_wr_xdata>
 8002cba:	f8cb 9010 	str.w	r9, [fp, #16]
 8002cbe:	f8cb 8010 	str.w	r8, [fp, #16]
 8002cc2:	60f8      	str	r0, [r7, #12]
 8002cc4:	f8cb 6010 	str.w	r6, [fp, #16]
 8002cc8:	20aa      	movs	r0, #170	@ 0xaa
 8002cca:	f8cb 4010 	str.w	r4, [fp, #16]
 8002cce:	f8cb 5010 	str.w	r5, [fp, #16]
 8002cd2:	f7fd fe6f 	bl	80009b4 <lcd_wr_xdata>
 8002cd6:	22cf      	movs	r2, #207	@ 0xcf
 8002cd8:	4650      	mov	r0, sl
 8002cda:	f8cb 9010 	str.w	r9, [fp, #16]
 8002cde:	f8cb 8010 	str.w	r8, [fp, #16]
 8002ce2:	60fa      	str	r2, [r7, #12]
 8002ce4:	f8cb 6010 	str.w	r6, [fp, #16]
 8002ce8:	f8cb 4010 	str.w	r4, [fp, #16]
 8002cec:	f8cb 5010 	str.w	r5, [fp, #16]
 8002cf0:	f7fd fe60 	bl	80009b4 <lcd_wr_xdata>
 8002cf4:	f7fd fe5e 	bl	80009b4 <lcd_wr_xdata>
 8002cf8:	f7fd fe5c 	bl	80009b4 <lcd_wr_xdata>
 8002cfc:	f7fd fe5a 	bl	80009b4 <lcd_wr_xdata>
 8002d00:	f7fd fe58 	bl	80009b4 <lcd_wr_xdata>
 8002d04:	f7fd fe56 	bl	80009b4 <lcd_wr_xdata>
 8002d08:	f7fd fe54 	bl	80009b4 <lcd_wr_xdata>
 8002d0c:	f7fd fe52 	bl	80009b4 <lcd_wr_xdata>
 8002d10:	f7fd fe50 	bl	80009b4 <lcd_wr_xdata>
 8002d14:	f7fd fe4e 	bl	80009b4 <lcd_wr_xdata>
 8002d18:	f7fd fe4c 	bl	80009b4 <lcd_wr_xdata>
 8002d1c:	f7fd fe4a 	bl	80009b4 <lcd_wr_xdata>
 8002d20:	f7fd fe48 	bl	80009b4 <lcd_wr_xdata>
 8002d24:	f7fd fe46 	bl	80009b4 <lcd_wr_xdata>
 8002d28:	f7fd fe44 	bl	80009b4 <lcd_wr_xdata>
 8002d2c:	f7fd fe42 	bl	80009b4 <lcd_wr_xdata>
 8002d30:	f7fd fe40 	bl	80009b4 <lcd_wr_xdata>
 8002d34:	22f0      	movs	r2, #240	@ 0xf0
 8002d36:	f8cb 9010 	str.w	r9, [fp, #16]
 8002d3a:	f8cb 8010 	str.w	r8, [fp, #16]
 8002d3e:	60fa      	str	r2, [r7, #12]
 8002d40:	f8cb 6010 	str.w	r6, [fp, #16]
 8002d44:	f8cb 4010 	str.w	r4, [fp, #16]
 8002d48:	f8cb 5010 	str.w	r5, [fp, #16]
 8002d4c:	f7fd fe32 	bl	80009b4 <lcd_wr_xdata>
 8002d50:	2050      	movs	r0, #80	@ 0x50
 8002d52:	f7fd fe2f 	bl	80009b4 <lcd_wr_xdata>
 8002d56:	4650      	mov	r0, sl
 8002d58:	f7fd fe2c 	bl	80009b4 <lcd_wr_xdata>
 8002d5c:	f7fd fe2a 	bl	80009b4 <lcd_wr_xdata>
 8002d60:	f7fd fe28 	bl	80009b4 <lcd_wr_xdata>
 8002d64:	22f3      	movs	r2, #243	@ 0xf3
 8002d66:	f8cb 9010 	str.w	r9, [fp, #16]
 8002d6a:	f8cb 8010 	str.w	r8, [fp, #16]
 8002d6e:	60fa      	str	r2, [r7, #12]
 8002d70:	f8cb 6010 	str.w	r6, [fp, #16]
 8002d74:	f8cb 4010 	str.w	r4, [fp, #16]
 8002d78:	f8cb 5010 	str.w	r5, [fp, #16]
 8002d7c:	f7fd fe1a 	bl	80009b4 <lcd_wr_xdata>
 8002d80:	22f9      	movs	r2, #249	@ 0xf9
 8002d82:	f8cb 9010 	str.w	r9, [fp, #16]
 8002d86:	2006      	movs	r0, #6
 8002d88:	f8cb 8010 	str.w	r8, [fp, #16]
 8002d8c:	60fa      	str	r2, [r7, #12]
 8002d8e:	f8cb 6010 	str.w	r6, [fp, #16]
 8002d92:	f8cb 4010 	str.w	r4, [fp, #16]
 8002d96:	f8cb 5010 	str.w	r5, [fp, #16]
 8002d9a:	f7fd fe0b 	bl	80009b4 <lcd_wr_xdata>
 8002d9e:	2010      	movs	r0, #16
 8002da0:	f7fd fe08 	bl	80009b4 <lcd_wr_xdata>
 8002da4:	2029      	movs	r0, #41	@ 0x29
 8002da6:	f7fd fe05 	bl	80009b4 <lcd_wr_xdata>
 8002daa:	4650      	mov	r0, sl
 8002dac:	f7fd fe02 	bl	80009b4 <lcd_wr_xdata>
 8002db0:	223a      	movs	r2, #58	@ 0x3a
 8002db2:	f8cb 9010 	str.w	r9, [fp, #16]
 8002db6:	2055      	movs	r0, #85	@ 0x55
 8002db8:	f8cb 8010 	str.w	r8, [fp, #16]
 8002dbc:	60fa      	str	r2, [r7, #12]
 8002dbe:	f8cb 6010 	str.w	r6, [fp, #16]
 8002dc2:	f8cb 4010 	str.w	r4, [fp, #16]
 8002dc6:	f8cb 5010 	str.w	r5, [fp, #16]
 8002dca:	f7fd fdf3 	bl	80009b4 <lcd_wr_xdata>
 8002dce:	2211      	movs	r2, #17
 8002dd0:	f8cb 9010 	str.w	r9, [fp, #16]
 8002dd4:	2064      	movs	r0, #100	@ 0x64
 8002dd6:	f8cb 8010 	str.w	r8, [fp, #16]
 8002dda:	60fa      	str	r2, [r7, #12]
 8002ddc:	f8cb 6010 	str.w	r6, [fp, #16]
 8002de0:	f8cb 4010 	str.w	r4, [fp, #16]
 8002de4:	f8cb 5010 	str.w	r5, [fp, #16]
 8002de8:	f001 ff2a 	bl	8004c40 <HAL_Delay>
 8002dec:	2229      	movs	r2, #41	@ 0x29
 8002dee:	f8cb 9010 	str.w	r9, [fp, #16]
 8002df2:	f8cb 8010 	str.w	r8, [fp, #16]
 8002df6:	60fa      	str	r2, [r7, #12]
 8002df8:	2235      	movs	r2, #53	@ 0x35
 8002dfa:	f8cb 6010 	str.w	r6, [fp, #16]
 8002dfe:	4650      	mov	r0, sl
 8002e00:	f8cb 4010 	str.w	r4, [fp, #16]
 8002e04:	f8cb 5010 	str.w	r5, [fp, #16]
 8002e08:	f8cb 9010 	str.w	r9, [fp, #16]
 8002e0c:	f8cb 8010 	str.w	r8, [fp, #16]
 8002e10:	60fa      	str	r2, [r7, #12]
 8002e12:	f8cb 6010 	str.w	r6, [fp, #16]
 8002e16:	f8cb 4010 	str.w	r4, [fp, #16]
 8002e1a:	f8cb 5010 	str.w	r5, [fp, #16]
 8002e1e:	f7fd fdc9 	bl	80009b4 <lcd_wr_xdata>
 8002e22:	2251      	movs	r2, #81	@ 0x51
 8002e24:	f8cb 9010 	str.w	r9, [fp, #16]
 8002e28:	20ff      	movs	r0, #255	@ 0xff
 8002e2a:	f8cb 8010 	str.w	r8, [fp, #16]
 8002e2e:	60fa      	str	r2, [r7, #12]
 8002e30:	f8cb 6010 	str.w	r6, [fp, #16]
 8002e34:	f8cb 4010 	str.w	r4, [fp, #16]
 8002e38:	f8cb 5010 	str.w	r5, [fp, #16]
 8002e3c:	f7fd fdba 	bl	80009b4 <lcd_wr_xdata>
 8002e40:	2253      	movs	r2, #83	@ 0x53
 8002e42:	f8cb 9010 	str.w	r9, [fp, #16]
 8002e46:	202c      	movs	r0, #44	@ 0x2c
 8002e48:	f8cb 8010 	str.w	r8, [fp, #16]
 8002e4c:	60fa      	str	r2, [r7, #12]
 8002e4e:	f8cb 6010 	str.w	r6, [fp, #16]
 8002e52:	f8cb 4010 	str.w	r4, [fp, #16]
 8002e56:	f8cb 5010 	str.w	r5, [fp, #16]
 8002e5a:	f7fd fdab 	bl	80009b4 <lcd_wr_xdata>
 8002e5e:	2255      	movs	r2, #85	@ 0x55
 8002e60:	f8cb 9010 	str.w	r9, [fp, #16]
 8002e64:	2082      	movs	r0, #130	@ 0x82
 8002e66:	f8cb 8010 	str.w	r8, [fp, #16]
 8002e6a:	60fa      	str	r2, [r7, #12]
 8002e6c:	f8cb 6010 	str.w	r6, [fp, #16]
 8002e70:	f8cb 4010 	str.w	r4, [fp, #16]
 8002e74:	f8cb 5010 	str.w	r5, [fp, #16]
 8002e78:	f7fd fd9c 	bl	80009b4 <lcd_wr_xdata>
 8002e7c:	f8cb 9010 	str.w	r9, [fp, #16]
 8002e80:	222c      	movs	r2, #44	@ 0x2c
 8002e82:	f8cb 8010 	str.w	r8, [fp, #16]
 8002e86:	e19a      	b.n	80031be <lcd_init+0x1f02>
 8002e88:	f247 7196 	movw	r1, #30614	@ 0x7796
 8002e8c:	428a      	cmp	r2, r1
 8002e8e:	f040 81a1 	bne.w	80031d4 <lcd_init+0x1f18>
 8002e92:	f04f 7980 	mov.w	r9, #16777216	@ 0x1000000
 8002e96:	f04f 7800 	mov.w	r8, #33554432	@ 0x2000000
 8002e9a:	2480      	movs	r4, #128	@ 0x80
 8002e9c:	f44f 0600 	mov.w	r6, #8388608	@ 0x800000
 8002ea0:	f44f 7500 	mov.w	r5, #512	@ 0x200
 8002ea4:	2211      	movs	r2, #17
 8002ea6:	f04f 0a36 	mov.w	sl, #54	@ 0x36
 8002eaa:	4fc9      	ldr	r7, [pc, #804]	@ (80031d0 <lcd_init+0x1f14>)
 8002eac:	f8cb 9010 	str.w	r9, [fp, #16]
 8002eb0:	2078      	movs	r0, #120	@ 0x78
 8002eb2:	f8cb 8010 	str.w	r8, [fp, #16]
 8002eb6:	60fa      	str	r2, [r7, #12]
 8002eb8:	f8cb 6010 	str.w	r6, [fp, #16]
 8002ebc:	f8cb 4010 	str.w	r4, [fp, #16]
 8002ec0:	f8cb 5010 	str.w	r5, [fp, #16]
 8002ec4:	f001 febc 	bl	8004c40 <HAL_Delay>
 8002ec8:	f8cb 9010 	str.w	r9, [fp, #16]
 8002ecc:	2048      	movs	r0, #72	@ 0x48
 8002ece:	f8cb 8010 	str.w	r8, [fp, #16]
 8002ed2:	f8c7 a00c 	str.w	sl, [r7, #12]
 8002ed6:	f8cb 6010 	str.w	r6, [fp, #16]
 8002eda:	f8cb 4010 	str.w	r4, [fp, #16]
 8002ede:	f8cb 5010 	str.w	r5, [fp, #16]
 8002ee2:	f7fd fd67 	bl	80009b4 <lcd_wr_xdata>
 8002ee6:	223a      	movs	r2, #58	@ 0x3a
 8002ee8:	21f0      	movs	r1, #240	@ 0xf0
 8002eea:	f8cb 9010 	str.w	r9, [fp, #16]
 8002eee:	2055      	movs	r0, #85	@ 0x55
 8002ef0:	f8cb 8010 	str.w	r8, [fp, #16]
 8002ef4:	60fa      	str	r2, [r7, #12]
 8002ef6:	f8cb 6010 	str.w	r6, [fp, #16]
 8002efa:	f8cb 4010 	str.w	r4, [fp, #16]
 8002efe:	f8cb 5010 	str.w	r5, [fp, #16]
 8002f02:	f7fd fd57 	bl	80009b4 <lcd_wr_xdata>
 8002f06:	f8cb 9010 	str.w	r9, [fp, #16]
 8002f0a:	20c3      	movs	r0, #195	@ 0xc3
 8002f0c:	f8cb 8010 	str.w	r8, [fp, #16]
 8002f10:	60f9      	str	r1, [r7, #12]
 8002f12:	f8cb 6010 	str.w	r6, [fp, #16]
 8002f16:	f8cb 4010 	str.w	r4, [fp, #16]
 8002f1a:	f8cb 5010 	str.w	r5, [fp, #16]
 8002f1e:	f7fd fd49 	bl	80009b4 <lcd_wr_xdata>
 8002f22:	f8cb 9010 	str.w	r9, [fp, #16]
 8002f26:	2096      	movs	r0, #150	@ 0x96
 8002f28:	f8cb 8010 	str.w	r8, [fp, #16]
 8002f2c:	60f9      	str	r1, [r7, #12]
 8002f2e:	f8cb 6010 	str.w	r6, [fp, #16]
 8002f32:	f8cb 4010 	str.w	r4, [fp, #16]
 8002f36:	f8cb 5010 	str.w	r5, [fp, #16]
 8002f3a:	f7fd fd3b 	bl	80009b4 <lcd_wr_xdata>
 8002f3e:	22b4      	movs	r2, #180	@ 0xb4
 8002f40:	f8cb 9010 	str.w	r9, [fp, #16]
 8002f44:	2001      	movs	r0, #1
 8002f46:	f8cb 8010 	str.w	r8, [fp, #16]
 8002f4a:	60fa      	str	r2, [r7, #12]
 8002f4c:	f8cb 6010 	str.w	r6, [fp, #16]
 8002f50:	f8cb 4010 	str.w	r4, [fp, #16]
 8002f54:	f8cb 5010 	str.w	r5, [fp, #16]
 8002f58:	f7fd fd2c 	bl	80009b4 <lcd_wr_xdata>
 8002f5c:	22b6      	movs	r2, #182	@ 0xb6
 8002f5e:	f8cb 9010 	str.w	r9, [fp, #16]
 8002f62:	200a      	movs	r0, #10
 8002f64:	f8cb 8010 	str.w	r8, [fp, #16]
 8002f68:	60fa      	str	r2, [r7, #12]
 8002f6a:	f8cb 6010 	str.w	r6, [fp, #16]
 8002f6e:	f8cb 4010 	str.w	r4, [fp, #16]
 8002f72:	f8cb 5010 	str.w	r5, [fp, #16]
 8002f76:	f7fd fd1d 	bl	80009b4 <lcd_wr_xdata>
 8002f7a:	20a2      	movs	r0, #162	@ 0xa2
 8002f7c:	f7fd fd1a 	bl	80009b4 <lcd_wr_xdata>
 8002f80:	22b7      	movs	r2, #183	@ 0xb7
 8002f82:	f8cb 9010 	str.w	r9, [fp, #16]
 8002f86:	20c6      	movs	r0, #198	@ 0xc6
 8002f88:	f8cb 8010 	str.w	r8, [fp, #16]
 8002f8c:	60fa      	str	r2, [r7, #12]
 8002f8e:	f8cb 6010 	str.w	r6, [fp, #16]
 8002f92:	f8cb 4010 	str.w	r4, [fp, #16]
 8002f96:	f8cb 5010 	str.w	r5, [fp, #16]
 8002f9a:	f7fd fd0b 	bl	80009b4 <lcd_wr_xdata>
 8002f9e:	22b9      	movs	r2, #185	@ 0xb9
 8002fa0:	f8cb 9010 	str.w	r9, [fp, #16]
 8002fa4:	2002      	movs	r0, #2
 8002fa6:	f8cb 8010 	str.w	r8, [fp, #16]
 8002faa:	60fa      	str	r2, [r7, #12]
 8002fac:	f8cb 6010 	str.w	r6, [fp, #16]
 8002fb0:	f8cb 4010 	str.w	r4, [fp, #16]
 8002fb4:	f8cb 5010 	str.w	r5, [fp, #16]
 8002fb8:	f7fd fcfc 	bl	80009b4 <lcd_wr_xdata>
 8002fbc:	20e0      	movs	r0, #224	@ 0xe0
 8002fbe:	f7fd fcf9 	bl	80009b4 <lcd_wr_xdata>
 8002fc2:	22c0      	movs	r2, #192	@ 0xc0
 8002fc4:	f8cb 9010 	str.w	r9, [fp, #16]
 8002fc8:	4620      	mov	r0, r4
 8002fca:	f8cb 8010 	str.w	r8, [fp, #16]
 8002fce:	60fa      	str	r2, [r7, #12]
 8002fd0:	f8cb 6010 	str.w	r6, [fp, #16]
 8002fd4:	f8cb 4010 	str.w	r4, [fp, #16]
 8002fd8:	f8cb 5010 	str.w	r5, [fp, #16]
 8002fdc:	f7fd fcea 	bl	80009b4 <lcd_wr_xdata>
 8002fe0:	2016      	movs	r0, #22
 8002fe2:	f7fd fce7 	bl	80009b4 <lcd_wr_xdata>
 8002fe6:	22c1      	movs	r2, #193	@ 0xc1
 8002fe8:	f8cb 9010 	str.w	r9, [fp, #16]
 8002fec:	2019      	movs	r0, #25
 8002fee:	f8cb 8010 	str.w	r8, [fp, #16]
 8002ff2:	60fa      	str	r2, [r7, #12]
 8002ff4:	f8cb 6010 	str.w	r6, [fp, #16]
 8002ff8:	f8cb 4010 	str.w	r4, [fp, #16]
 8002ffc:	f8cb 5010 	str.w	r5, [fp, #16]
 8003000:	f7fd fcd8 	bl	80009b4 <lcd_wr_xdata>
 8003004:	22c2      	movs	r2, #194	@ 0xc2
 8003006:	f8cb 9010 	str.w	r9, [fp, #16]
 800300a:	20a7      	movs	r0, #167	@ 0xa7
 800300c:	f8cb 8010 	str.w	r8, [fp, #16]
 8003010:	60fa      	str	r2, [r7, #12]
 8003012:	f8cb 6010 	str.w	r6, [fp, #16]
 8003016:	f8cb 4010 	str.w	r4, [fp, #16]
 800301a:	f8cb 5010 	str.w	r5, [fp, #16]
 800301e:	f7fd fcc9 	bl	80009b4 <lcd_wr_xdata>
 8003022:	22c5      	movs	r2, #197	@ 0xc5
 8003024:	f8cb 9010 	str.w	r9, [fp, #16]
 8003028:	2016      	movs	r0, #22
 800302a:	f8cb 8010 	str.w	r8, [fp, #16]
 800302e:	60fa      	str	r2, [r7, #12]
 8003030:	f8cb 6010 	str.w	r6, [fp, #16]
 8003034:	f8cb 4010 	str.w	r4, [fp, #16]
 8003038:	f8cb 5010 	str.w	r5, [fp, #16]
 800303c:	f7fd fcba 	bl	80009b4 <lcd_wr_xdata>
 8003040:	22e8      	movs	r2, #232	@ 0xe8
 8003042:	f8cb 9010 	str.w	r9, [fp, #16]
 8003046:	2040      	movs	r0, #64	@ 0x40
 8003048:	f8cb 8010 	str.w	r8, [fp, #16]
 800304c:	60fa      	str	r2, [r7, #12]
 800304e:	f8cb 6010 	str.w	r6, [fp, #16]
 8003052:	f8cb 4010 	str.w	r4, [fp, #16]
 8003056:	f8cb 5010 	str.w	r5, [fp, #16]
 800305a:	f7fd fcab 	bl	80009b4 <lcd_wr_xdata>
 800305e:	208a      	movs	r0, #138	@ 0x8a
 8003060:	f7fd fca8 	bl	80009b4 <lcd_wr_xdata>
 8003064:	2000      	movs	r0, #0
 8003066:	f7fd fca5 	bl	80009b4 <lcd_wr_xdata>
 800306a:	f7fd fca3 	bl	80009b4 <lcd_wr_xdata>
 800306e:	2029      	movs	r0, #41	@ 0x29
 8003070:	f7fd fca0 	bl	80009b4 <lcd_wr_xdata>
 8003074:	2019      	movs	r0, #25
 8003076:	f7fd fc9d 	bl	80009b4 <lcd_wr_xdata>
 800307a:	20a5      	movs	r0, #165	@ 0xa5
 800307c:	f7fd fc9a 	bl	80009b4 <lcd_wr_xdata>
 8003080:	2033      	movs	r0, #51	@ 0x33
 8003082:	f7fd fc97 	bl	80009b4 <lcd_wr_xdata>
 8003086:	22e0      	movs	r2, #224	@ 0xe0
 8003088:	f8cb 9010 	str.w	r9, [fp, #16]
 800308c:	4608      	mov	r0, r1
 800308e:	f8cb 8010 	str.w	r8, [fp, #16]
 8003092:	60fa      	str	r2, [r7, #12]
 8003094:	f8cb 6010 	str.w	r6, [fp, #16]
 8003098:	f8cb 4010 	str.w	r4, [fp, #16]
 800309c:	f8cb 5010 	str.w	r5, [fp, #16]
 80030a0:	f7fd fc88 	bl	80009b4 <lcd_wr_xdata>
 80030a4:	2007      	movs	r0, #7
 80030a6:	f7fd fc85 	bl	80009b4 <lcd_wr_xdata>
 80030aa:	200d      	movs	r0, #13
 80030ac:	f7fd fc82 	bl	80009b4 <lcd_wr_xdata>
 80030b0:	2004      	movs	r0, #4
 80030b2:	f7fd fc7f 	bl	80009b4 <lcd_wr_xdata>
 80030b6:	2005      	movs	r0, #5
 80030b8:	f7fd fc7c 	bl	80009b4 <lcd_wr_xdata>
 80030bc:	2014      	movs	r0, #20
 80030be:	f7fd fc79 	bl	80009b4 <lcd_wr_xdata>
 80030c2:	4650      	mov	r0, sl
 80030c4:	f7fd fc76 	bl	80009b4 <lcd_wr_xdata>
 80030c8:	2054      	movs	r0, #84	@ 0x54
 80030ca:	f7fd fc73 	bl	80009b4 <lcd_wr_xdata>
 80030ce:	204c      	movs	r0, #76	@ 0x4c
 80030d0:	f7fd fc70 	bl	80009b4 <lcd_wr_xdata>
 80030d4:	2038      	movs	r0, #56	@ 0x38
 80030d6:	f7fd fc6d 	bl	80009b4 <lcd_wr_xdata>
 80030da:	2013      	movs	r0, #19
 80030dc:	f7fd fc6a 	bl	80009b4 <lcd_wr_xdata>
 80030e0:	2014      	movs	r0, #20
 80030e2:	f7fd fc67 	bl	80009b4 <lcd_wr_xdata>
 80030e6:	202e      	movs	r0, #46	@ 0x2e
 80030e8:	f7fd fc64 	bl	80009b4 <lcd_wr_xdata>
 80030ec:	2034      	movs	r0, #52	@ 0x34
 80030ee:	f7fd fc61 	bl	80009b4 <lcd_wr_xdata>
 80030f2:	22e1      	movs	r2, #225	@ 0xe1
 80030f4:	f8cb 9010 	str.w	r9, [fp, #16]
 80030f8:	4608      	mov	r0, r1
 80030fa:	f8cb 8010 	str.w	r8, [fp, #16]
 80030fe:	60fa      	str	r2, [r7, #12]
 8003100:	f8cb 6010 	str.w	r6, [fp, #16]
 8003104:	f8cb 4010 	str.w	r4, [fp, #16]
 8003108:	f8cb 5010 	str.w	r5, [fp, #16]
 800310c:	f7fd fc52 	bl	80009b4 <lcd_wr_xdata>
 8003110:	2010      	movs	r0, #16
 8003112:	f7fd fc4f 	bl	80009b4 <lcd_wr_xdata>
 8003116:	2014      	movs	r0, #20
 8003118:	f7fd fc4c 	bl	80009b4 <lcd_wr_xdata>
 800311c:	200e      	movs	r0, #14
 800311e:	f7fd fc49 	bl	80009b4 <lcd_wr_xdata>
 8003122:	200c      	movs	r0, #12
 8003124:	f7fd fc46 	bl	80009b4 <lcd_wr_xdata>
 8003128:	2008      	movs	r0, #8
 800312a:	f7fd fc43 	bl	80009b4 <lcd_wr_xdata>
 800312e:	2035      	movs	r0, #53	@ 0x35
 8003130:	f7fd fc40 	bl	80009b4 <lcd_wr_xdata>
 8003134:	2044      	movs	r0, #68	@ 0x44
 8003136:	f7fd fc3d 	bl	80009b4 <lcd_wr_xdata>
 800313a:	204c      	movs	r0, #76	@ 0x4c
 800313c:	f7fd fc3a 	bl	80009b4 <lcd_wr_xdata>
 8003140:	2026      	movs	r0, #38	@ 0x26
 8003142:	f7fd fc37 	bl	80009b4 <lcd_wr_xdata>
 8003146:	2010      	movs	r0, #16
 8003148:	f7fd fc34 	bl	80009b4 <lcd_wr_xdata>
 800314c:	2012      	movs	r0, #18
 800314e:	f7fd fc31 	bl	80009b4 <lcd_wr_xdata>
 8003152:	202c      	movs	r0, #44	@ 0x2c
 8003154:	f7fd fc2e 	bl	80009b4 <lcd_wr_xdata>
 8003158:	2032      	movs	r0, #50	@ 0x32
 800315a:	f7fd fc2b 	bl	80009b4 <lcd_wr_xdata>
 800315e:	f8cb 9010 	str.w	r9, [fp, #16]
 8003162:	203c      	movs	r0, #60	@ 0x3c
 8003164:	f8cb 8010 	str.w	r8, [fp, #16]
 8003168:	60f9      	str	r1, [r7, #12]
 800316a:	f8cb 6010 	str.w	r6, [fp, #16]
 800316e:	f8cb 4010 	str.w	r4, [fp, #16]
 8003172:	f8cb 5010 	str.w	r5, [fp, #16]
 8003176:	f7fd fc1d 	bl	80009b4 <lcd_wr_xdata>
 800317a:	f8cb 9010 	str.w	r9, [fp, #16]
 800317e:	2069      	movs	r0, #105	@ 0x69
 8003180:	f8cb 8010 	str.w	r8, [fp, #16]
 8003184:	60f9      	str	r1, [r7, #12]
 8003186:	f8cb 6010 	str.w	r6, [fp, #16]
 800318a:	f8cb 4010 	str.w	r4, [fp, #16]
 800318e:	f8cb 5010 	str.w	r5, [fp, #16]
 8003192:	f7fd fc0f 	bl	80009b4 <lcd_wr_xdata>
 8003196:	2078      	movs	r0, #120	@ 0x78
 8003198:	f001 fd52 	bl	8004c40 <HAL_Delay>
 800319c:	2221      	movs	r2, #33	@ 0x21
 800319e:	f8cb 9010 	str.w	r9, [fp, #16]
 80031a2:	f8cb 8010 	str.w	r8, [fp, #16]
 80031a6:	60fa      	str	r2, [r7, #12]
 80031a8:	2229      	movs	r2, #41	@ 0x29
 80031aa:	f8cb 6010 	str.w	r6, [fp, #16]
 80031ae:	f8cb 4010 	str.w	r4, [fp, #16]
 80031b2:	f8cb 5010 	str.w	r5, [fp, #16]
 80031b6:	f8cb 9010 	str.w	r9, [fp, #16]
 80031ba:	f8cb 8010 	str.w	r8, [fp, #16]
 80031be:	60fa      	str	r2, [r7, #12]
 80031c0:	f8cb 6010 	str.w	r6, [fp, #16]
 80031c4:	f8cb 4010 	str.w	r4, [fp, #16]
 80031c8:	f8cb 5010 	str.w	r5, [fp, #16]
 80031cc:	f7fe bb90 	b.w	80018f0 <lcd_init+0x634>
 80031d0:	40010c00 	.word	0x40010c00
 80031d4:	f245 5110 	movw	r1, #21776	@ 0x5510
 80031d8:	428a      	cmp	r2, r1
 80031da:	f040 877d 	bne.w	80040d8 <lcd_init+0x2e1c>
 80031de:	2155      	movs	r1, #85	@ 0x55
 80031e0:	f44f 4070 	mov.w	r0, #61440	@ 0xf000
 80031e4:	f7fd fbfc 	bl	80009e0 <lcd_write_reg>
 80031e8:	21aa      	movs	r1, #170	@ 0xaa
 80031ea:	f24f 0001 	movw	r0, #61441	@ 0xf001
 80031ee:	f7fd fbf7 	bl	80009e0 <lcd_write_reg>
 80031f2:	2152      	movs	r1, #82	@ 0x52
 80031f4:	f24f 0002 	movw	r0, #61442	@ 0xf002
 80031f8:	f7fd fbf2 	bl	80009e0 <lcd_write_reg>
 80031fc:	2108      	movs	r1, #8
 80031fe:	f24f 0003 	movw	r0, #61443	@ 0xf003
 8003202:	f7fd fbed 	bl	80009e0 <lcd_write_reg>
 8003206:	2101      	movs	r1, #1
 8003208:	f24f 0004 	movw	r0, #61444	@ 0xf004
 800320c:	f7fd fbe8 	bl	80009e0 <lcd_write_reg>
 8003210:	210d      	movs	r1, #13
 8003212:	f44f 4030 	mov.w	r0, #45056	@ 0xb000
 8003216:	f7fd fbe3 	bl	80009e0 <lcd_write_reg>
 800321a:	f24b 0001 	movw	r0, #45057	@ 0xb001
 800321e:	f7fd fbdf 	bl	80009e0 <lcd_write_reg>
 8003222:	f24b 0002 	movw	r0, #45058	@ 0xb002
 8003226:	f7fd fbdb 	bl	80009e0 <lcd_write_reg>
 800322a:	2134      	movs	r1, #52	@ 0x34
 800322c:	f44f 4036 	mov.w	r0, #46592	@ 0xb600
 8003230:	f7fd fbd6 	bl	80009e0 <lcd_write_reg>
 8003234:	f24b 6001 	movw	r0, #46593	@ 0xb601
 8003238:	f7fd fbd2 	bl	80009e0 <lcd_write_reg>
 800323c:	f24b 6002 	movw	r0, #46594	@ 0xb602
 8003240:	f7fd fbce 	bl	80009e0 <lcd_write_reg>
 8003244:	210d      	movs	r1, #13
 8003246:	f44f 4031 	mov.w	r0, #45312	@ 0xb100
 800324a:	f7fd fbc9 	bl	80009e0 <lcd_write_reg>
 800324e:	f24b 1001 	movw	r0, #45313	@ 0xb101
 8003252:	f7fd fbc5 	bl	80009e0 <lcd_write_reg>
 8003256:	f24b 1002 	movw	r0, #45314	@ 0xb102
 800325a:	f7fd fbc1 	bl	80009e0 <lcd_write_reg>
 800325e:	2134      	movs	r1, #52	@ 0x34
 8003260:	f44f 4037 	mov.w	r0, #46848	@ 0xb700
 8003264:	f7fd fbbc 	bl	80009e0 <lcd_write_reg>
 8003268:	f24b 7001 	movw	r0, #46849	@ 0xb701
 800326c:	f7fd fbb8 	bl	80009e0 <lcd_write_reg>
 8003270:	f24b 7002 	movw	r0, #46850	@ 0xb702
 8003274:	f7fd fbb4 	bl	80009e0 <lcd_write_reg>
 8003278:	2100      	movs	r1, #0
 800327a:	f44f 4032 	mov.w	r0, #45568	@ 0xb200
 800327e:	f7fd fbaf 	bl	80009e0 <lcd_write_reg>
 8003282:	f24b 2001 	movw	r0, #45569	@ 0xb201
 8003286:	f7fd fbab 	bl	80009e0 <lcd_write_reg>
 800328a:	f24b 2002 	movw	r0, #45570	@ 0xb202
 800328e:	f7fd fba7 	bl	80009e0 <lcd_write_reg>
 8003292:	2124      	movs	r1, #36	@ 0x24
 8003294:	f44f 4038 	mov.w	r0, #47104	@ 0xb800
 8003298:	f7fd fba2 	bl	80009e0 <lcd_write_reg>
 800329c:	f64b 0001 	movw	r0, #47105	@ 0xb801
 80032a0:	f7fd fb9e 	bl	80009e0 <lcd_write_reg>
 80032a4:	f64b 0002 	movw	r0, #47106	@ 0xb802
 80032a8:	f7fd fb9a 	bl	80009e0 <lcd_write_reg>
 80032ac:	2101      	movs	r1, #1
 80032ae:	f44f 403f 	mov.w	r0, #48896	@ 0xbf00
 80032b2:	f7fd fb95 	bl	80009e0 <lcd_write_reg>
 80032b6:	210f      	movs	r1, #15
 80032b8:	f44f 4033 	mov.w	r0, #45824	@ 0xb300
 80032bc:	f7fd fb90 	bl	80009e0 <lcd_write_reg>
 80032c0:	f24b 3001 	movw	r0, #45825	@ 0xb301
 80032c4:	f7fd fb8c 	bl	80009e0 <lcd_write_reg>
 80032c8:	f24b 3002 	movw	r0, #45826	@ 0xb302
 80032cc:	f7fd fb88 	bl	80009e0 <lcd_write_reg>
 80032d0:	2134      	movs	r1, #52	@ 0x34
 80032d2:	f44f 4039 	mov.w	r0, #47360	@ 0xb900
 80032d6:	f7fd fb83 	bl	80009e0 <lcd_write_reg>
 80032da:	f64b 1001 	movw	r0, #47361	@ 0xb901
 80032de:	f7fd fb7f 	bl	80009e0 <lcd_write_reg>
 80032e2:	f64b 1002 	movw	r0, #47362	@ 0xb902
 80032e6:	f7fd fb7b 	bl	80009e0 <lcd_write_reg>
 80032ea:	2108      	movs	r1, #8
 80032ec:	f44f 4035 	mov.w	r0, #46336	@ 0xb500
 80032f0:	f7fd fb76 	bl	80009e0 <lcd_write_reg>
 80032f4:	f24b 5001 	movw	r0, #46337	@ 0xb501
 80032f8:	f7fd fb72 	bl	80009e0 <lcd_write_reg>
 80032fc:	f24b 5002 	movw	r0, #46338	@ 0xb502
 8003300:	f7fd fb6e 	bl	80009e0 <lcd_write_reg>
 8003304:	2103      	movs	r1, #3
 8003306:	f44f 4042 	mov.w	r0, #49664	@ 0xc200
 800330a:	f7fd fb69 	bl	80009e0 <lcd_write_reg>
 800330e:	2124      	movs	r1, #36	@ 0x24
 8003310:	f44f 403a 	mov.w	r0, #47616	@ 0xba00
 8003314:	f7fd fb64 	bl	80009e0 <lcd_write_reg>
 8003318:	f64b 2001 	movw	r0, #47617	@ 0xba01
 800331c:	f7fd fb60 	bl	80009e0 <lcd_write_reg>
 8003320:	f64b 2002 	movw	r0, #47618	@ 0xba02
 8003324:	f7fd fb5c 	bl	80009e0 <lcd_write_reg>
 8003328:	2100      	movs	r1, #0
 800332a:	f44f 403c 	mov.w	r0, #48128	@ 0xbc00
 800332e:	f7fd fb57 	bl	80009e0 <lcd_write_reg>
 8003332:	2178      	movs	r1, #120	@ 0x78
 8003334:	f64b 4001 	movw	r0, #48129	@ 0xbc01
 8003338:	f7fd fb52 	bl	80009e0 <lcd_write_reg>
 800333c:	2100      	movs	r1, #0
 800333e:	f64b 4002 	movw	r0, #48130	@ 0xbc02
 8003342:	f7fd fb4d 	bl	80009e0 <lcd_write_reg>
 8003346:	f44f 403d 	mov.w	r0, #48384	@ 0xbd00
 800334a:	f7fd fb49 	bl	80009e0 <lcd_write_reg>
 800334e:	2178      	movs	r1, #120	@ 0x78
 8003350:	f64b 5001 	movw	r0, #48385	@ 0xbd01
 8003354:	f7fd fb44 	bl	80009e0 <lcd_write_reg>
 8003358:	2100      	movs	r1, #0
 800335a:	f64b 5002 	movw	r0, #48386	@ 0xbd02
 800335e:	f7fd fb3f 	bl	80009e0 <lcd_write_reg>
 8003362:	f44f 403e 	mov.w	r0, #48640	@ 0xbe00
 8003366:	f7fd fb3b 	bl	80009e0 <lcd_write_reg>
 800336a:	2164      	movs	r1, #100	@ 0x64
 800336c:	f64b 6001 	movw	r0, #48641	@ 0xbe01
 8003370:	f7fd fb36 	bl	80009e0 <lcd_write_reg>
 8003374:	2100      	movs	r1, #0
 8003376:	f44f 4051 	mov.w	r0, #53504	@ 0xd100
 800337a:	f7fd fb31 	bl	80009e0 <lcd_write_reg>
 800337e:	2133      	movs	r1, #51	@ 0x33
 8003380:	f24d 1001 	movw	r0, #53505	@ 0xd101
 8003384:	f7fd fb2c 	bl	80009e0 <lcd_write_reg>
 8003388:	2100      	movs	r1, #0
 800338a:	f24d 1002 	movw	r0, #53506	@ 0xd102
 800338e:	f7fd fb27 	bl	80009e0 <lcd_write_reg>
 8003392:	2134      	movs	r1, #52	@ 0x34
 8003394:	f24d 1003 	movw	r0, #53507	@ 0xd103
 8003398:	f7fd fb22 	bl	80009e0 <lcd_write_reg>
 800339c:	2100      	movs	r1, #0
 800339e:	f24d 1004 	movw	r0, #53508	@ 0xd104
 80033a2:	f7fd fb1d 	bl	80009e0 <lcd_write_reg>
 80033a6:	213a      	movs	r1, #58	@ 0x3a
 80033a8:	f24d 1005 	movw	r0, #53509	@ 0xd105
 80033ac:	f7fd fb18 	bl	80009e0 <lcd_write_reg>
 80033b0:	2100      	movs	r1, #0
 80033b2:	f24d 1006 	movw	r0, #53510	@ 0xd106
 80033b6:	f7fd fb13 	bl	80009e0 <lcd_write_reg>
 80033ba:	214a      	movs	r1, #74	@ 0x4a
 80033bc:	f24d 1007 	movw	r0, #53511	@ 0xd107
 80033c0:	f7fd fb0e 	bl	80009e0 <lcd_write_reg>
 80033c4:	2100      	movs	r1, #0
 80033c6:	f24d 1008 	movw	r0, #53512	@ 0xd108
 80033ca:	f7fd fb09 	bl	80009e0 <lcd_write_reg>
 80033ce:	215c      	movs	r1, #92	@ 0x5c
 80033d0:	f24d 1009 	movw	r0, #53513	@ 0xd109
 80033d4:	f7fd fb04 	bl	80009e0 <lcd_write_reg>
 80033d8:	2100      	movs	r1, #0
 80033da:	f24d 100a 	movw	r0, #53514	@ 0xd10a
 80033de:	f7fd faff 	bl	80009e0 <lcd_write_reg>
 80033e2:	2181      	movs	r1, #129	@ 0x81
 80033e4:	f24d 100b 	movw	r0, #53515	@ 0xd10b
 80033e8:	f7fd fafa 	bl	80009e0 <lcd_write_reg>
 80033ec:	2100      	movs	r1, #0
 80033ee:	f24d 100c 	movw	r0, #53516	@ 0xd10c
 80033f2:	f7fd faf5 	bl	80009e0 <lcd_write_reg>
 80033f6:	21a6      	movs	r1, #166	@ 0xa6
 80033f8:	f24d 100d 	movw	r0, #53517	@ 0xd10d
 80033fc:	f7fd faf0 	bl	80009e0 <lcd_write_reg>
 8003400:	2100      	movs	r1, #0
 8003402:	f24d 100e 	movw	r0, #53518	@ 0xd10e
 8003406:	f7fd faeb 	bl	80009e0 <lcd_write_reg>
 800340a:	21e5      	movs	r1, #229	@ 0xe5
 800340c:	f24d 100f 	movw	r0, #53519	@ 0xd10f
 8003410:	f7fd fae6 	bl	80009e0 <lcd_write_reg>
 8003414:	2101      	movs	r1, #1
 8003416:	f24d 1010 	movw	r0, #53520	@ 0xd110
 800341a:	f7fd fae1 	bl	80009e0 <lcd_write_reg>
 800341e:	2113      	movs	r1, #19
 8003420:	f24d 1011 	movw	r0, #53521	@ 0xd111
 8003424:	f7fd fadc 	bl	80009e0 <lcd_write_reg>
 8003428:	2101      	movs	r1, #1
 800342a:	f24d 1012 	movw	r0, #53522	@ 0xd112
 800342e:	f7fd fad7 	bl	80009e0 <lcd_write_reg>
 8003432:	2154      	movs	r1, #84	@ 0x54
 8003434:	f24d 1013 	movw	r0, #53523	@ 0xd113
 8003438:	f7fd fad2 	bl	80009e0 <lcd_write_reg>
 800343c:	2101      	movs	r1, #1
 800343e:	f24d 1014 	movw	r0, #53524	@ 0xd114
 8003442:	f7fd facd 	bl	80009e0 <lcd_write_reg>
 8003446:	2182      	movs	r1, #130	@ 0x82
 8003448:	f24d 1015 	movw	r0, #53525	@ 0xd115
 800344c:	f7fd fac8 	bl	80009e0 <lcd_write_reg>
 8003450:	2101      	movs	r1, #1
 8003452:	f24d 1016 	movw	r0, #53526	@ 0xd116
 8003456:	f7fd fac3 	bl	80009e0 <lcd_write_reg>
 800345a:	21ca      	movs	r1, #202	@ 0xca
 800345c:	f24d 1017 	movw	r0, #53527	@ 0xd117
 8003460:	f7fd fabe 	bl	80009e0 <lcd_write_reg>
 8003464:	2102      	movs	r1, #2
 8003466:	f24d 1018 	movw	r0, #53528	@ 0xd118
 800346a:	f7fd fab9 	bl	80009e0 <lcd_write_reg>
 800346e:	2100      	movs	r1, #0
 8003470:	f24d 1019 	movw	r0, #53529	@ 0xd119
 8003474:	f7fd fab4 	bl	80009e0 <lcd_write_reg>
 8003478:	2102      	movs	r1, #2
 800347a:	f24d 101a 	movw	r0, #53530	@ 0xd11a
 800347e:	f7fd faaf 	bl	80009e0 <lcd_write_reg>
 8003482:	2101      	movs	r1, #1
 8003484:	f24d 101b 	movw	r0, #53531	@ 0xd11b
 8003488:	f7fd faaa 	bl	80009e0 <lcd_write_reg>
 800348c:	2102      	movs	r1, #2
 800348e:	f24d 101c 	movw	r0, #53532	@ 0xd11c
 8003492:	f7fd faa5 	bl	80009e0 <lcd_write_reg>
 8003496:	2134      	movs	r1, #52	@ 0x34
 8003498:	f24d 101d 	movw	r0, #53533	@ 0xd11d
 800349c:	f7fd faa0 	bl	80009e0 <lcd_write_reg>
 80034a0:	2102      	movs	r1, #2
 80034a2:	f24d 101e 	movw	r0, #53534	@ 0xd11e
 80034a6:	f7fd fa9b 	bl	80009e0 <lcd_write_reg>
 80034aa:	2167      	movs	r1, #103	@ 0x67
 80034ac:	f24d 101f 	movw	r0, #53535	@ 0xd11f
 80034b0:	f7fd fa96 	bl	80009e0 <lcd_write_reg>
 80034b4:	2102      	movs	r1, #2
 80034b6:	f24d 1020 	movw	r0, #53536	@ 0xd120
 80034ba:	f7fd fa91 	bl	80009e0 <lcd_write_reg>
 80034be:	2184      	movs	r1, #132	@ 0x84
 80034c0:	f24d 1021 	movw	r0, #53537	@ 0xd121
 80034c4:	f7fd fa8c 	bl	80009e0 <lcd_write_reg>
 80034c8:	2102      	movs	r1, #2
 80034ca:	f24d 1022 	movw	r0, #53538	@ 0xd122
 80034ce:	f7fd fa87 	bl	80009e0 <lcd_write_reg>
 80034d2:	21a4      	movs	r1, #164	@ 0xa4
 80034d4:	f24d 1023 	movw	r0, #53539	@ 0xd123
 80034d8:	f7fd fa82 	bl	80009e0 <lcd_write_reg>
 80034dc:	2102      	movs	r1, #2
 80034de:	f24d 1024 	movw	r0, #53540	@ 0xd124
 80034e2:	f7fd fa7d 	bl	80009e0 <lcd_write_reg>
 80034e6:	21b7      	movs	r1, #183	@ 0xb7
 80034e8:	f24d 1025 	movw	r0, #53541	@ 0xd125
 80034ec:	f7fd fa78 	bl	80009e0 <lcd_write_reg>
 80034f0:	2102      	movs	r1, #2
 80034f2:	f24d 1026 	movw	r0, #53542	@ 0xd126
 80034f6:	f7fd fa73 	bl	80009e0 <lcd_write_reg>
 80034fa:	21cf      	movs	r1, #207	@ 0xcf
 80034fc:	f24d 1027 	movw	r0, #53543	@ 0xd127
 8003500:	f7fd fa6e 	bl	80009e0 <lcd_write_reg>
 8003504:	2102      	movs	r1, #2
 8003506:	f24d 1028 	movw	r0, #53544	@ 0xd128
 800350a:	f7fd fa69 	bl	80009e0 <lcd_write_reg>
 800350e:	21de      	movs	r1, #222	@ 0xde
 8003510:	f24d 1029 	movw	r0, #53545	@ 0xd129
 8003514:	f7fd fa64 	bl	80009e0 <lcd_write_reg>
 8003518:	2102      	movs	r1, #2
 800351a:	f24d 102a 	movw	r0, #53546	@ 0xd12a
 800351e:	f7fd fa5f 	bl	80009e0 <lcd_write_reg>
 8003522:	21f2      	movs	r1, #242	@ 0xf2
 8003524:	f24d 102b 	movw	r0, #53547	@ 0xd12b
 8003528:	f7fd fa5a 	bl	80009e0 <lcd_write_reg>
 800352c:	2102      	movs	r1, #2
 800352e:	f24d 102c 	movw	r0, #53548	@ 0xd12c
 8003532:	f7fd fa55 	bl	80009e0 <lcd_write_reg>
 8003536:	21fe      	movs	r1, #254	@ 0xfe
 8003538:	f24d 102d 	movw	r0, #53549	@ 0xd12d
 800353c:	f7fd fa50 	bl	80009e0 <lcd_write_reg>
 8003540:	2103      	movs	r1, #3
 8003542:	f24d 102e 	movw	r0, #53550	@ 0xd12e
 8003546:	f7fd fa4b 	bl	80009e0 <lcd_write_reg>
 800354a:	2110      	movs	r1, #16
 800354c:	f24d 102f 	movw	r0, #53551	@ 0xd12f
 8003550:	f7fd fa46 	bl	80009e0 <lcd_write_reg>
 8003554:	2103      	movs	r1, #3
 8003556:	f24d 1030 	movw	r0, #53552	@ 0xd130
 800355a:	f7fd fa41 	bl	80009e0 <lcd_write_reg>
 800355e:	2133      	movs	r1, #51	@ 0x33
 8003560:	f24d 1031 	movw	r0, #53553	@ 0xd131
 8003564:	f7fd fa3c 	bl	80009e0 <lcd_write_reg>
 8003568:	2103      	movs	r1, #3
 800356a:	f24d 1032 	movw	r0, #53554	@ 0xd132
 800356e:	f7fd fa37 	bl	80009e0 <lcd_write_reg>
 8003572:	216d      	movs	r1, #109	@ 0x6d
 8003574:	f24d 1033 	movw	r0, #53555	@ 0xd133
 8003578:	f7fd fa32 	bl	80009e0 <lcd_write_reg>
 800357c:	2100      	movs	r1, #0
 800357e:	f44f 4052 	mov.w	r0, #53760	@ 0xd200
 8003582:	f7fd fa2d 	bl	80009e0 <lcd_write_reg>
 8003586:	2133      	movs	r1, #51	@ 0x33
 8003588:	f24d 2001 	movw	r0, #53761	@ 0xd201
 800358c:	f7fd fa28 	bl	80009e0 <lcd_write_reg>
 8003590:	2100      	movs	r1, #0
 8003592:	f24d 2002 	movw	r0, #53762	@ 0xd202
 8003596:	f7fd fa23 	bl	80009e0 <lcd_write_reg>
 800359a:	2134      	movs	r1, #52	@ 0x34
 800359c:	f24d 2003 	movw	r0, #53763	@ 0xd203
 80035a0:	f7fd fa1e 	bl	80009e0 <lcd_write_reg>
 80035a4:	2100      	movs	r1, #0
 80035a6:	f24d 2004 	movw	r0, #53764	@ 0xd204
 80035aa:	f7fd fa19 	bl	80009e0 <lcd_write_reg>
 80035ae:	213a      	movs	r1, #58	@ 0x3a
 80035b0:	f24d 2005 	movw	r0, #53765	@ 0xd205
 80035b4:	f7fd fa14 	bl	80009e0 <lcd_write_reg>
 80035b8:	2100      	movs	r1, #0
 80035ba:	f24d 2006 	movw	r0, #53766	@ 0xd206
 80035be:	f7fd fa0f 	bl	80009e0 <lcd_write_reg>
 80035c2:	214a      	movs	r1, #74	@ 0x4a
 80035c4:	f24d 2007 	movw	r0, #53767	@ 0xd207
 80035c8:	f7fd fa0a 	bl	80009e0 <lcd_write_reg>
 80035cc:	2100      	movs	r1, #0
 80035ce:	f24d 2008 	movw	r0, #53768	@ 0xd208
 80035d2:	f7fd fa05 	bl	80009e0 <lcd_write_reg>
 80035d6:	215c      	movs	r1, #92	@ 0x5c
 80035d8:	f24d 2009 	movw	r0, #53769	@ 0xd209
 80035dc:	f7fd fa00 	bl	80009e0 <lcd_write_reg>
 80035e0:	2100      	movs	r1, #0
 80035e2:	f24d 200a 	movw	r0, #53770	@ 0xd20a
 80035e6:	f7fd f9fb 	bl	80009e0 <lcd_write_reg>
 80035ea:	2181      	movs	r1, #129	@ 0x81
 80035ec:	f24d 200b 	movw	r0, #53771	@ 0xd20b
 80035f0:	f7fd f9f6 	bl	80009e0 <lcd_write_reg>
 80035f4:	2100      	movs	r1, #0
 80035f6:	f24d 200c 	movw	r0, #53772	@ 0xd20c
 80035fa:	f7fd f9f1 	bl	80009e0 <lcd_write_reg>
 80035fe:	21a6      	movs	r1, #166	@ 0xa6
 8003600:	f24d 200d 	movw	r0, #53773	@ 0xd20d
 8003604:	f7fd f9ec 	bl	80009e0 <lcd_write_reg>
 8003608:	2100      	movs	r1, #0
 800360a:	f24d 200e 	movw	r0, #53774	@ 0xd20e
 800360e:	f7fd f9e7 	bl	80009e0 <lcd_write_reg>
 8003612:	21e5      	movs	r1, #229	@ 0xe5
 8003614:	f24d 200f 	movw	r0, #53775	@ 0xd20f
 8003618:	f7fd f9e2 	bl	80009e0 <lcd_write_reg>
 800361c:	2101      	movs	r1, #1
 800361e:	f24d 2010 	movw	r0, #53776	@ 0xd210
 8003622:	f7fd f9dd 	bl	80009e0 <lcd_write_reg>
 8003626:	2113      	movs	r1, #19
 8003628:	f24d 2011 	movw	r0, #53777	@ 0xd211
 800362c:	f7fd f9d8 	bl	80009e0 <lcd_write_reg>
 8003630:	2101      	movs	r1, #1
 8003632:	f24d 2012 	movw	r0, #53778	@ 0xd212
 8003636:	f7fd f9d3 	bl	80009e0 <lcd_write_reg>
 800363a:	2154      	movs	r1, #84	@ 0x54
 800363c:	f24d 2013 	movw	r0, #53779	@ 0xd213
 8003640:	f7fd f9ce 	bl	80009e0 <lcd_write_reg>
 8003644:	2101      	movs	r1, #1
 8003646:	f24d 2014 	movw	r0, #53780	@ 0xd214
 800364a:	f7fd f9c9 	bl	80009e0 <lcd_write_reg>
 800364e:	2182      	movs	r1, #130	@ 0x82
 8003650:	f24d 2015 	movw	r0, #53781	@ 0xd215
 8003654:	f7fd f9c4 	bl	80009e0 <lcd_write_reg>
 8003658:	2101      	movs	r1, #1
 800365a:	f24d 2016 	movw	r0, #53782	@ 0xd216
 800365e:	f7fd f9bf 	bl	80009e0 <lcd_write_reg>
 8003662:	21ca      	movs	r1, #202	@ 0xca
 8003664:	f24d 2017 	movw	r0, #53783	@ 0xd217
 8003668:	f7fd f9ba 	bl	80009e0 <lcd_write_reg>
 800366c:	2102      	movs	r1, #2
 800366e:	f24d 2018 	movw	r0, #53784	@ 0xd218
 8003672:	f7fd f9b5 	bl	80009e0 <lcd_write_reg>
 8003676:	2100      	movs	r1, #0
 8003678:	f24d 2019 	movw	r0, #53785	@ 0xd219
 800367c:	f7fd f9b0 	bl	80009e0 <lcd_write_reg>
 8003680:	2102      	movs	r1, #2
 8003682:	f24d 201a 	movw	r0, #53786	@ 0xd21a
 8003686:	f7fd f9ab 	bl	80009e0 <lcd_write_reg>
 800368a:	2101      	movs	r1, #1
 800368c:	f24d 201b 	movw	r0, #53787	@ 0xd21b
 8003690:	f7fd f9a6 	bl	80009e0 <lcd_write_reg>
 8003694:	2102      	movs	r1, #2
 8003696:	f24d 201c 	movw	r0, #53788	@ 0xd21c
 800369a:	f7fd f9a1 	bl	80009e0 <lcd_write_reg>
 800369e:	2134      	movs	r1, #52	@ 0x34
 80036a0:	f24d 201d 	movw	r0, #53789	@ 0xd21d
 80036a4:	f7fd f99c 	bl	80009e0 <lcd_write_reg>
 80036a8:	2102      	movs	r1, #2
 80036aa:	f24d 201e 	movw	r0, #53790	@ 0xd21e
 80036ae:	f7fd f997 	bl	80009e0 <lcd_write_reg>
 80036b2:	2167      	movs	r1, #103	@ 0x67
 80036b4:	f24d 201f 	movw	r0, #53791	@ 0xd21f
 80036b8:	f7fd f992 	bl	80009e0 <lcd_write_reg>
 80036bc:	2102      	movs	r1, #2
 80036be:	f24d 2020 	movw	r0, #53792	@ 0xd220
 80036c2:	f7fd f98d 	bl	80009e0 <lcd_write_reg>
 80036c6:	2184      	movs	r1, #132	@ 0x84
 80036c8:	f24d 2021 	movw	r0, #53793	@ 0xd221
 80036cc:	f7fd f988 	bl	80009e0 <lcd_write_reg>
 80036d0:	2102      	movs	r1, #2
 80036d2:	f24d 2022 	movw	r0, #53794	@ 0xd222
 80036d6:	f7fd f983 	bl	80009e0 <lcd_write_reg>
 80036da:	21a4      	movs	r1, #164	@ 0xa4
 80036dc:	f24d 2023 	movw	r0, #53795	@ 0xd223
 80036e0:	f7fd f97e 	bl	80009e0 <lcd_write_reg>
 80036e4:	2102      	movs	r1, #2
 80036e6:	f24d 2024 	movw	r0, #53796	@ 0xd224
 80036ea:	f7fd f979 	bl	80009e0 <lcd_write_reg>
 80036ee:	21b7      	movs	r1, #183	@ 0xb7
 80036f0:	f24d 2025 	movw	r0, #53797	@ 0xd225
 80036f4:	f7fd f974 	bl	80009e0 <lcd_write_reg>
 80036f8:	2102      	movs	r1, #2
 80036fa:	f24d 2026 	movw	r0, #53798	@ 0xd226
 80036fe:	f7fd f96f 	bl	80009e0 <lcd_write_reg>
 8003702:	21cf      	movs	r1, #207	@ 0xcf
 8003704:	f24d 2027 	movw	r0, #53799	@ 0xd227
 8003708:	f7fd f96a 	bl	80009e0 <lcd_write_reg>
 800370c:	2102      	movs	r1, #2
 800370e:	f24d 2028 	movw	r0, #53800	@ 0xd228
 8003712:	f7fd f965 	bl	80009e0 <lcd_write_reg>
 8003716:	21de      	movs	r1, #222	@ 0xde
 8003718:	f24d 2029 	movw	r0, #53801	@ 0xd229
 800371c:	f7fd f960 	bl	80009e0 <lcd_write_reg>
 8003720:	2102      	movs	r1, #2
 8003722:	f24d 202a 	movw	r0, #53802	@ 0xd22a
 8003726:	f7fd f95b 	bl	80009e0 <lcd_write_reg>
 800372a:	21f2      	movs	r1, #242	@ 0xf2
 800372c:	f24d 202b 	movw	r0, #53803	@ 0xd22b
 8003730:	f7fd f956 	bl	80009e0 <lcd_write_reg>
 8003734:	2102      	movs	r1, #2
 8003736:	f24d 202c 	movw	r0, #53804	@ 0xd22c
 800373a:	f7fd f951 	bl	80009e0 <lcd_write_reg>
 800373e:	21fe      	movs	r1, #254	@ 0xfe
 8003740:	f24d 202d 	movw	r0, #53805	@ 0xd22d
 8003744:	f7fd f94c 	bl	80009e0 <lcd_write_reg>
 8003748:	2103      	movs	r1, #3
 800374a:	f24d 202e 	movw	r0, #53806	@ 0xd22e
 800374e:	f7fd f947 	bl	80009e0 <lcd_write_reg>
 8003752:	2110      	movs	r1, #16
 8003754:	f24d 202f 	movw	r0, #53807	@ 0xd22f
 8003758:	f7fd f942 	bl	80009e0 <lcd_write_reg>
 800375c:	2103      	movs	r1, #3
 800375e:	f24d 2030 	movw	r0, #53808	@ 0xd230
 8003762:	f7fd f93d 	bl	80009e0 <lcd_write_reg>
 8003766:	2133      	movs	r1, #51	@ 0x33
 8003768:	f24d 2031 	movw	r0, #53809	@ 0xd231
 800376c:	f7fd f938 	bl	80009e0 <lcd_write_reg>
 8003770:	2103      	movs	r1, #3
 8003772:	f24d 2032 	movw	r0, #53810	@ 0xd232
 8003776:	f7fd f933 	bl	80009e0 <lcd_write_reg>
 800377a:	216d      	movs	r1, #109	@ 0x6d
 800377c:	f24d 2033 	movw	r0, #53811	@ 0xd233
 8003780:	f7fd f92e 	bl	80009e0 <lcd_write_reg>
 8003784:	2100      	movs	r1, #0
 8003786:	f44f 4053 	mov.w	r0, #54016	@ 0xd300
 800378a:	f7fd f929 	bl	80009e0 <lcd_write_reg>
 800378e:	2133      	movs	r1, #51	@ 0x33
 8003790:	f24d 3001 	movw	r0, #54017	@ 0xd301
 8003794:	f7fd f924 	bl	80009e0 <lcd_write_reg>
 8003798:	2100      	movs	r1, #0
 800379a:	f24d 3002 	movw	r0, #54018	@ 0xd302
 800379e:	f7fd f91f 	bl	80009e0 <lcd_write_reg>
 80037a2:	2134      	movs	r1, #52	@ 0x34
 80037a4:	f24d 3003 	movw	r0, #54019	@ 0xd303
 80037a8:	f7fd f91a 	bl	80009e0 <lcd_write_reg>
 80037ac:	2100      	movs	r1, #0
 80037ae:	f24d 3004 	movw	r0, #54020	@ 0xd304
 80037b2:	f7fd f915 	bl	80009e0 <lcd_write_reg>
 80037b6:	213a      	movs	r1, #58	@ 0x3a
 80037b8:	f24d 3005 	movw	r0, #54021	@ 0xd305
 80037bc:	f7fd f910 	bl	80009e0 <lcd_write_reg>
 80037c0:	2100      	movs	r1, #0
 80037c2:	f24d 3006 	movw	r0, #54022	@ 0xd306
 80037c6:	f7fd f90b 	bl	80009e0 <lcd_write_reg>
 80037ca:	214a      	movs	r1, #74	@ 0x4a
 80037cc:	f24d 3007 	movw	r0, #54023	@ 0xd307
 80037d0:	f7fd f906 	bl	80009e0 <lcd_write_reg>
 80037d4:	2100      	movs	r1, #0
 80037d6:	f24d 3008 	movw	r0, #54024	@ 0xd308
 80037da:	f7fd f901 	bl	80009e0 <lcd_write_reg>
 80037de:	215c      	movs	r1, #92	@ 0x5c
 80037e0:	f24d 3009 	movw	r0, #54025	@ 0xd309
 80037e4:	f7fd f8fc 	bl	80009e0 <lcd_write_reg>
 80037e8:	2100      	movs	r1, #0
 80037ea:	f24d 300a 	movw	r0, #54026	@ 0xd30a
 80037ee:	f7fd f8f7 	bl	80009e0 <lcd_write_reg>
 80037f2:	2181      	movs	r1, #129	@ 0x81
 80037f4:	f24d 300b 	movw	r0, #54027	@ 0xd30b
 80037f8:	f7fd f8f2 	bl	80009e0 <lcd_write_reg>
 80037fc:	2100      	movs	r1, #0
 80037fe:	f24d 300c 	movw	r0, #54028	@ 0xd30c
 8003802:	f7fd f8ed 	bl	80009e0 <lcd_write_reg>
 8003806:	21a6      	movs	r1, #166	@ 0xa6
 8003808:	f24d 300d 	movw	r0, #54029	@ 0xd30d
 800380c:	f7fd f8e8 	bl	80009e0 <lcd_write_reg>
 8003810:	2100      	movs	r1, #0
 8003812:	f24d 300e 	movw	r0, #54030	@ 0xd30e
 8003816:	f7fd f8e3 	bl	80009e0 <lcd_write_reg>
 800381a:	21e5      	movs	r1, #229	@ 0xe5
 800381c:	f24d 300f 	movw	r0, #54031	@ 0xd30f
 8003820:	f7fd f8de 	bl	80009e0 <lcd_write_reg>
 8003824:	2101      	movs	r1, #1
 8003826:	f24d 3010 	movw	r0, #54032	@ 0xd310
 800382a:	f7fd f8d9 	bl	80009e0 <lcd_write_reg>
 800382e:	2113      	movs	r1, #19
 8003830:	f24d 3011 	movw	r0, #54033	@ 0xd311
 8003834:	f7fd f8d4 	bl	80009e0 <lcd_write_reg>
 8003838:	2101      	movs	r1, #1
 800383a:	f24d 3012 	movw	r0, #54034	@ 0xd312
 800383e:	f7fd f8cf 	bl	80009e0 <lcd_write_reg>
 8003842:	2154      	movs	r1, #84	@ 0x54
 8003844:	f24d 3013 	movw	r0, #54035	@ 0xd313
 8003848:	f7fd f8ca 	bl	80009e0 <lcd_write_reg>
 800384c:	2101      	movs	r1, #1
 800384e:	f24d 3014 	movw	r0, #54036	@ 0xd314
 8003852:	f7fd f8c5 	bl	80009e0 <lcd_write_reg>
 8003856:	2182      	movs	r1, #130	@ 0x82
 8003858:	f24d 3015 	movw	r0, #54037	@ 0xd315
 800385c:	f7fd f8c0 	bl	80009e0 <lcd_write_reg>
 8003860:	2101      	movs	r1, #1
 8003862:	f24d 3016 	movw	r0, #54038	@ 0xd316
 8003866:	f7fd f8bb 	bl	80009e0 <lcd_write_reg>
 800386a:	21ca      	movs	r1, #202	@ 0xca
 800386c:	f24d 3017 	movw	r0, #54039	@ 0xd317
 8003870:	f7fd f8b6 	bl	80009e0 <lcd_write_reg>
 8003874:	2102      	movs	r1, #2
 8003876:	f24d 3018 	movw	r0, #54040	@ 0xd318
 800387a:	f7fd f8b1 	bl	80009e0 <lcd_write_reg>
 800387e:	2100      	movs	r1, #0
 8003880:	f24d 3019 	movw	r0, #54041	@ 0xd319
 8003884:	f7fd f8ac 	bl	80009e0 <lcd_write_reg>
 8003888:	2102      	movs	r1, #2
 800388a:	f24d 301a 	movw	r0, #54042	@ 0xd31a
 800388e:	f7fd f8a7 	bl	80009e0 <lcd_write_reg>
 8003892:	2101      	movs	r1, #1
 8003894:	f24d 301b 	movw	r0, #54043	@ 0xd31b
 8003898:	f7fd f8a2 	bl	80009e0 <lcd_write_reg>
 800389c:	2102      	movs	r1, #2
 800389e:	f24d 301c 	movw	r0, #54044	@ 0xd31c
 80038a2:	f7fd f89d 	bl	80009e0 <lcd_write_reg>
 80038a6:	2134      	movs	r1, #52	@ 0x34
 80038a8:	f24d 301d 	movw	r0, #54045	@ 0xd31d
 80038ac:	f7fd f898 	bl	80009e0 <lcd_write_reg>
 80038b0:	2102      	movs	r1, #2
 80038b2:	f24d 301e 	movw	r0, #54046	@ 0xd31e
 80038b6:	f7fd f893 	bl	80009e0 <lcd_write_reg>
 80038ba:	2167      	movs	r1, #103	@ 0x67
 80038bc:	f24d 301f 	movw	r0, #54047	@ 0xd31f
 80038c0:	f7fd f88e 	bl	80009e0 <lcd_write_reg>
 80038c4:	2102      	movs	r1, #2
 80038c6:	f24d 3020 	movw	r0, #54048	@ 0xd320
 80038ca:	f7fd f889 	bl	80009e0 <lcd_write_reg>
 80038ce:	2184      	movs	r1, #132	@ 0x84
 80038d0:	f24d 3021 	movw	r0, #54049	@ 0xd321
 80038d4:	f7fd f884 	bl	80009e0 <lcd_write_reg>
 80038d8:	2102      	movs	r1, #2
 80038da:	f24d 3022 	movw	r0, #54050	@ 0xd322
 80038de:	f7fd f87f 	bl	80009e0 <lcd_write_reg>
 80038e2:	21a4      	movs	r1, #164	@ 0xa4
 80038e4:	f24d 3023 	movw	r0, #54051	@ 0xd323
 80038e8:	f7fd f87a 	bl	80009e0 <lcd_write_reg>
 80038ec:	2102      	movs	r1, #2
 80038ee:	f24d 3024 	movw	r0, #54052	@ 0xd324
 80038f2:	f7fd f875 	bl	80009e0 <lcd_write_reg>
 80038f6:	21b7      	movs	r1, #183	@ 0xb7
 80038f8:	f24d 3025 	movw	r0, #54053	@ 0xd325
 80038fc:	f7fd f870 	bl	80009e0 <lcd_write_reg>
 8003900:	2102      	movs	r1, #2
 8003902:	f24d 3026 	movw	r0, #54054	@ 0xd326
 8003906:	f7fd f86b 	bl	80009e0 <lcd_write_reg>
 800390a:	21cf      	movs	r1, #207	@ 0xcf
 800390c:	f24d 3027 	movw	r0, #54055	@ 0xd327
 8003910:	f7fd f866 	bl	80009e0 <lcd_write_reg>
 8003914:	2102      	movs	r1, #2
 8003916:	f24d 3028 	movw	r0, #54056	@ 0xd328
 800391a:	f7fd f861 	bl	80009e0 <lcd_write_reg>
 800391e:	21de      	movs	r1, #222	@ 0xde
 8003920:	f24d 3029 	movw	r0, #54057	@ 0xd329
 8003924:	f7fd f85c 	bl	80009e0 <lcd_write_reg>
 8003928:	2102      	movs	r1, #2
 800392a:	f24d 302a 	movw	r0, #54058	@ 0xd32a
 800392e:	f7fd f857 	bl	80009e0 <lcd_write_reg>
 8003932:	21f2      	movs	r1, #242	@ 0xf2
 8003934:	f24d 302b 	movw	r0, #54059	@ 0xd32b
 8003938:	f7fd f852 	bl	80009e0 <lcd_write_reg>
 800393c:	2102      	movs	r1, #2
 800393e:	f24d 302c 	movw	r0, #54060	@ 0xd32c
 8003942:	f7fd f84d 	bl	80009e0 <lcd_write_reg>
 8003946:	21fe      	movs	r1, #254	@ 0xfe
 8003948:	f24d 302d 	movw	r0, #54061	@ 0xd32d
 800394c:	f7fd f848 	bl	80009e0 <lcd_write_reg>
 8003950:	2103      	movs	r1, #3
 8003952:	f24d 302e 	movw	r0, #54062	@ 0xd32e
 8003956:	f7fd f843 	bl	80009e0 <lcd_write_reg>
 800395a:	2110      	movs	r1, #16
 800395c:	f24d 302f 	movw	r0, #54063	@ 0xd32f
 8003960:	f7fd f83e 	bl	80009e0 <lcd_write_reg>
 8003964:	2103      	movs	r1, #3
 8003966:	f24d 3030 	movw	r0, #54064	@ 0xd330
 800396a:	f7fd f839 	bl	80009e0 <lcd_write_reg>
 800396e:	2133      	movs	r1, #51	@ 0x33
 8003970:	f24d 3031 	movw	r0, #54065	@ 0xd331
 8003974:	f7fd f834 	bl	80009e0 <lcd_write_reg>
 8003978:	2103      	movs	r1, #3
 800397a:	f24d 3032 	movw	r0, #54066	@ 0xd332
 800397e:	f7fd f82f 	bl	80009e0 <lcd_write_reg>
 8003982:	216d      	movs	r1, #109	@ 0x6d
 8003984:	f24d 3033 	movw	r0, #54067	@ 0xd333
 8003988:	f7fd f82a 	bl	80009e0 <lcd_write_reg>
 800398c:	2100      	movs	r1, #0
 800398e:	f44f 4054 	mov.w	r0, #54272	@ 0xd400
 8003992:	f7fd f825 	bl	80009e0 <lcd_write_reg>
 8003996:	2133      	movs	r1, #51	@ 0x33
 8003998:	f24d 4001 	movw	r0, #54273	@ 0xd401
 800399c:	f7fd f820 	bl	80009e0 <lcd_write_reg>
 80039a0:	2100      	movs	r1, #0
 80039a2:	f24d 4002 	movw	r0, #54274	@ 0xd402
 80039a6:	f7fd f81b 	bl	80009e0 <lcd_write_reg>
 80039aa:	2134      	movs	r1, #52	@ 0x34
 80039ac:	f24d 4003 	movw	r0, #54275	@ 0xd403
 80039b0:	f7fd f816 	bl	80009e0 <lcd_write_reg>
 80039b4:	2100      	movs	r1, #0
 80039b6:	f24d 4004 	movw	r0, #54276	@ 0xd404
 80039ba:	f7fd f811 	bl	80009e0 <lcd_write_reg>
 80039be:	213a      	movs	r1, #58	@ 0x3a
 80039c0:	f24d 4005 	movw	r0, #54277	@ 0xd405
 80039c4:	f7fd f80c 	bl	80009e0 <lcd_write_reg>
 80039c8:	2100      	movs	r1, #0
 80039ca:	f24d 4006 	movw	r0, #54278	@ 0xd406
 80039ce:	f7fd f807 	bl	80009e0 <lcd_write_reg>
 80039d2:	214a      	movs	r1, #74	@ 0x4a
 80039d4:	f24d 4007 	movw	r0, #54279	@ 0xd407
 80039d8:	f7fd f802 	bl	80009e0 <lcd_write_reg>
 80039dc:	2100      	movs	r1, #0
 80039de:	f24d 4008 	movw	r0, #54280	@ 0xd408
 80039e2:	f7fc fffd 	bl	80009e0 <lcd_write_reg>
 80039e6:	215c      	movs	r1, #92	@ 0x5c
 80039e8:	f24d 4009 	movw	r0, #54281	@ 0xd409
 80039ec:	f7fc fff8 	bl	80009e0 <lcd_write_reg>
 80039f0:	2100      	movs	r1, #0
 80039f2:	f24d 400a 	movw	r0, #54282	@ 0xd40a
 80039f6:	f7fc fff3 	bl	80009e0 <lcd_write_reg>
 80039fa:	2181      	movs	r1, #129	@ 0x81
 80039fc:	f24d 400b 	movw	r0, #54283	@ 0xd40b
 8003a00:	f7fc ffee 	bl	80009e0 <lcd_write_reg>
 8003a04:	2100      	movs	r1, #0
 8003a06:	f24d 400c 	movw	r0, #54284	@ 0xd40c
 8003a0a:	f7fc ffe9 	bl	80009e0 <lcd_write_reg>
 8003a0e:	21a6      	movs	r1, #166	@ 0xa6
 8003a10:	f24d 400d 	movw	r0, #54285	@ 0xd40d
 8003a14:	f7fc ffe4 	bl	80009e0 <lcd_write_reg>
 8003a18:	2100      	movs	r1, #0
 8003a1a:	f24d 400e 	movw	r0, #54286	@ 0xd40e
 8003a1e:	f7fc ffdf 	bl	80009e0 <lcd_write_reg>
 8003a22:	21e5      	movs	r1, #229	@ 0xe5
 8003a24:	f24d 400f 	movw	r0, #54287	@ 0xd40f
 8003a28:	f7fc ffda 	bl	80009e0 <lcd_write_reg>
 8003a2c:	2101      	movs	r1, #1
 8003a2e:	f24d 4010 	movw	r0, #54288	@ 0xd410
 8003a32:	f7fc ffd5 	bl	80009e0 <lcd_write_reg>
 8003a36:	2113      	movs	r1, #19
 8003a38:	f24d 4011 	movw	r0, #54289	@ 0xd411
 8003a3c:	f7fc ffd0 	bl	80009e0 <lcd_write_reg>
 8003a40:	2101      	movs	r1, #1
 8003a42:	f24d 4012 	movw	r0, #54290	@ 0xd412
 8003a46:	f7fc ffcb 	bl	80009e0 <lcd_write_reg>
 8003a4a:	2154      	movs	r1, #84	@ 0x54
 8003a4c:	f24d 4013 	movw	r0, #54291	@ 0xd413
 8003a50:	f7fc ffc6 	bl	80009e0 <lcd_write_reg>
 8003a54:	2101      	movs	r1, #1
 8003a56:	f24d 4014 	movw	r0, #54292	@ 0xd414
 8003a5a:	f7fc ffc1 	bl	80009e0 <lcd_write_reg>
 8003a5e:	2182      	movs	r1, #130	@ 0x82
 8003a60:	f24d 4015 	movw	r0, #54293	@ 0xd415
 8003a64:	f7fc ffbc 	bl	80009e0 <lcd_write_reg>
 8003a68:	2101      	movs	r1, #1
 8003a6a:	f24d 4016 	movw	r0, #54294	@ 0xd416
 8003a6e:	f7fc ffb7 	bl	80009e0 <lcd_write_reg>
 8003a72:	21ca      	movs	r1, #202	@ 0xca
 8003a74:	f24d 4017 	movw	r0, #54295	@ 0xd417
 8003a78:	f7fc ffb2 	bl	80009e0 <lcd_write_reg>
 8003a7c:	2102      	movs	r1, #2
 8003a7e:	f24d 4018 	movw	r0, #54296	@ 0xd418
 8003a82:	f7fc ffad 	bl	80009e0 <lcd_write_reg>
 8003a86:	2100      	movs	r1, #0
 8003a88:	f24d 4019 	movw	r0, #54297	@ 0xd419
 8003a8c:	f7fc ffa8 	bl	80009e0 <lcd_write_reg>
 8003a90:	2102      	movs	r1, #2
 8003a92:	f24d 401a 	movw	r0, #54298	@ 0xd41a
 8003a96:	f7fc ffa3 	bl	80009e0 <lcd_write_reg>
 8003a9a:	2101      	movs	r1, #1
 8003a9c:	f24d 401b 	movw	r0, #54299	@ 0xd41b
 8003aa0:	f7fc ff9e 	bl	80009e0 <lcd_write_reg>
 8003aa4:	2102      	movs	r1, #2
 8003aa6:	f24d 401c 	movw	r0, #54300	@ 0xd41c
 8003aaa:	f7fc ff99 	bl	80009e0 <lcd_write_reg>
 8003aae:	2134      	movs	r1, #52	@ 0x34
 8003ab0:	f24d 401d 	movw	r0, #54301	@ 0xd41d
 8003ab4:	f7fc ff94 	bl	80009e0 <lcd_write_reg>
 8003ab8:	2102      	movs	r1, #2
 8003aba:	f24d 401e 	movw	r0, #54302	@ 0xd41e
 8003abe:	f7fc ff8f 	bl	80009e0 <lcd_write_reg>
 8003ac2:	2167      	movs	r1, #103	@ 0x67
 8003ac4:	f24d 401f 	movw	r0, #54303	@ 0xd41f
 8003ac8:	f7fc ff8a 	bl	80009e0 <lcd_write_reg>
 8003acc:	2102      	movs	r1, #2
 8003ace:	f24d 4020 	movw	r0, #54304	@ 0xd420
 8003ad2:	f7fc ff85 	bl	80009e0 <lcd_write_reg>
 8003ad6:	2184      	movs	r1, #132	@ 0x84
 8003ad8:	f24d 4021 	movw	r0, #54305	@ 0xd421
 8003adc:	f7fc ff80 	bl	80009e0 <lcd_write_reg>
 8003ae0:	2102      	movs	r1, #2
 8003ae2:	f24d 4022 	movw	r0, #54306	@ 0xd422
 8003ae6:	f7fc ff7b 	bl	80009e0 <lcd_write_reg>
 8003aea:	21a4      	movs	r1, #164	@ 0xa4
 8003aec:	f24d 4023 	movw	r0, #54307	@ 0xd423
 8003af0:	f7fc ff76 	bl	80009e0 <lcd_write_reg>
 8003af4:	2102      	movs	r1, #2
 8003af6:	f24d 4024 	movw	r0, #54308	@ 0xd424
 8003afa:	f7fc ff71 	bl	80009e0 <lcd_write_reg>
 8003afe:	21b7      	movs	r1, #183	@ 0xb7
 8003b00:	f24d 4025 	movw	r0, #54309	@ 0xd425
 8003b04:	f7fc ff6c 	bl	80009e0 <lcd_write_reg>
 8003b08:	2102      	movs	r1, #2
 8003b0a:	f24d 4026 	movw	r0, #54310	@ 0xd426
 8003b0e:	f7fc ff67 	bl	80009e0 <lcd_write_reg>
 8003b12:	21cf      	movs	r1, #207	@ 0xcf
 8003b14:	f24d 4027 	movw	r0, #54311	@ 0xd427
 8003b18:	f7fc ff62 	bl	80009e0 <lcd_write_reg>
 8003b1c:	2102      	movs	r1, #2
 8003b1e:	f24d 4028 	movw	r0, #54312	@ 0xd428
 8003b22:	f7fc ff5d 	bl	80009e0 <lcd_write_reg>
 8003b26:	21de      	movs	r1, #222	@ 0xde
 8003b28:	f24d 4029 	movw	r0, #54313	@ 0xd429
 8003b2c:	f7fc ff58 	bl	80009e0 <lcd_write_reg>
 8003b30:	2102      	movs	r1, #2
 8003b32:	f24d 402a 	movw	r0, #54314	@ 0xd42a
 8003b36:	f7fc ff53 	bl	80009e0 <lcd_write_reg>
 8003b3a:	21f2      	movs	r1, #242	@ 0xf2
 8003b3c:	f24d 402b 	movw	r0, #54315	@ 0xd42b
 8003b40:	f7fc ff4e 	bl	80009e0 <lcd_write_reg>
 8003b44:	2102      	movs	r1, #2
 8003b46:	f24d 402c 	movw	r0, #54316	@ 0xd42c
 8003b4a:	f7fc ff49 	bl	80009e0 <lcd_write_reg>
 8003b4e:	21fe      	movs	r1, #254	@ 0xfe
 8003b50:	f24d 402d 	movw	r0, #54317	@ 0xd42d
 8003b54:	f7fc ff44 	bl	80009e0 <lcd_write_reg>
 8003b58:	2103      	movs	r1, #3
 8003b5a:	f24d 402e 	movw	r0, #54318	@ 0xd42e
 8003b5e:	f7fc ff3f 	bl	80009e0 <lcd_write_reg>
 8003b62:	2110      	movs	r1, #16
 8003b64:	f24d 402f 	movw	r0, #54319	@ 0xd42f
 8003b68:	f7fc ff3a 	bl	80009e0 <lcd_write_reg>
 8003b6c:	2103      	movs	r1, #3
 8003b6e:	f24d 4030 	movw	r0, #54320	@ 0xd430
 8003b72:	f7fc ff35 	bl	80009e0 <lcd_write_reg>
 8003b76:	2133      	movs	r1, #51	@ 0x33
 8003b78:	f24d 4031 	movw	r0, #54321	@ 0xd431
 8003b7c:	f7fc ff30 	bl	80009e0 <lcd_write_reg>
 8003b80:	2103      	movs	r1, #3
 8003b82:	f24d 4032 	movw	r0, #54322	@ 0xd432
 8003b86:	f7fc ff2b 	bl	80009e0 <lcd_write_reg>
 8003b8a:	216d      	movs	r1, #109	@ 0x6d
 8003b8c:	f24d 4033 	movw	r0, #54323	@ 0xd433
 8003b90:	f7fc ff26 	bl	80009e0 <lcd_write_reg>
 8003b94:	2100      	movs	r1, #0
 8003b96:	f44f 4055 	mov.w	r0, #54528	@ 0xd500
 8003b9a:	f7fc ff21 	bl	80009e0 <lcd_write_reg>
 8003b9e:	2133      	movs	r1, #51	@ 0x33
 8003ba0:	f24d 5001 	movw	r0, #54529	@ 0xd501
 8003ba4:	f7fc ff1c 	bl	80009e0 <lcd_write_reg>
 8003ba8:	2100      	movs	r1, #0
 8003baa:	f24d 5002 	movw	r0, #54530	@ 0xd502
 8003bae:	f7fc ff17 	bl	80009e0 <lcd_write_reg>
 8003bb2:	2134      	movs	r1, #52	@ 0x34
 8003bb4:	f24d 5003 	movw	r0, #54531	@ 0xd503
 8003bb8:	f7fc ff12 	bl	80009e0 <lcd_write_reg>
 8003bbc:	2100      	movs	r1, #0
 8003bbe:	f24d 5004 	movw	r0, #54532	@ 0xd504
 8003bc2:	f7fc ff0d 	bl	80009e0 <lcd_write_reg>
 8003bc6:	213a      	movs	r1, #58	@ 0x3a
 8003bc8:	f24d 5005 	movw	r0, #54533	@ 0xd505
 8003bcc:	f7fc ff08 	bl	80009e0 <lcd_write_reg>
 8003bd0:	2100      	movs	r1, #0
 8003bd2:	f24d 5006 	movw	r0, #54534	@ 0xd506
 8003bd6:	f7fc ff03 	bl	80009e0 <lcd_write_reg>
 8003bda:	214a      	movs	r1, #74	@ 0x4a
 8003bdc:	f24d 5007 	movw	r0, #54535	@ 0xd507
 8003be0:	f7fc fefe 	bl	80009e0 <lcd_write_reg>
 8003be4:	2100      	movs	r1, #0
 8003be6:	f24d 5008 	movw	r0, #54536	@ 0xd508
 8003bea:	f7fc fef9 	bl	80009e0 <lcd_write_reg>
 8003bee:	215c      	movs	r1, #92	@ 0x5c
 8003bf0:	f24d 5009 	movw	r0, #54537	@ 0xd509
 8003bf4:	f7fc fef4 	bl	80009e0 <lcd_write_reg>
 8003bf8:	2100      	movs	r1, #0
 8003bfa:	f24d 500a 	movw	r0, #54538	@ 0xd50a
 8003bfe:	f7fc feef 	bl	80009e0 <lcd_write_reg>
 8003c02:	2181      	movs	r1, #129	@ 0x81
 8003c04:	f24d 500b 	movw	r0, #54539	@ 0xd50b
 8003c08:	f7fc feea 	bl	80009e0 <lcd_write_reg>
 8003c0c:	2100      	movs	r1, #0
 8003c0e:	f24d 500c 	movw	r0, #54540	@ 0xd50c
 8003c12:	f7fc fee5 	bl	80009e0 <lcd_write_reg>
 8003c16:	21a6      	movs	r1, #166	@ 0xa6
 8003c18:	f24d 500d 	movw	r0, #54541	@ 0xd50d
 8003c1c:	f7fc fee0 	bl	80009e0 <lcd_write_reg>
 8003c20:	2100      	movs	r1, #0
 8003c22:	f24d 500e 	movw	r0, #54542	@ 0xd50e
 8003c26:	f7fc fedb 	bl	80009e0 <lcd_write_reg>
 8003c2a:	21e5      	movs	r1, #229	@ 0xe5
 8003c2c:	f24d 500f 	movw	r0, #54543	@ 0xd50f
 8003c30:	f7fc fed6 	bl	80009e0 <lcd_write_reg>
 8003c34:	2101      	movs	r1, #1
 8003c36:	f24d 5010 	movw	r0, #54544	@ 0xd510
 8003c3a:	f7fc fed1 	bl	80009e0 <lcd_write_reg>
 8003c3e:	2113      	movs	r1, #19
 8003c40:	f24d 5011 	movw	r0, #54545	@ 0xd511
 8003c44:	f7fc fecc 	bl	80009e0 <lcd_write_reg>
 8003c48:	2101      	movs	r1, #1
 8003c4a:	f24d 5012 	movw	r0, #54546	@ 0xd512
 8003c4e:	f7fc fec7 	bl	80009e0 <lcd_write_reg>
 8003c52:	2154      	movs	r1, #84	@ 0x54
 8003c54:	f24d 5013 	movw	r0, #54547	@ 0xd513
 8003c58:	f7fc fec2 	bl	80009e0 <lcd_write_reg>
 8003c5c:	2101      	movs	r1, #1
 8003c5e:	f24d 5014 	movw	r0, #54548	@ 0xd514
 8003c62:	f7fc febd 	bl	80009e0 <lcd_write_reg>
 8003c66:	2182      	movs	r1, #130	@ 0x82
 8003c68:	f24d 5015 	movw	r0, #54549	@ 0xd515
 8003c6c:	f7fc feb8 	bl	80009e0 <lcd_write_reg>
 8003c70:	2101      	movs	r1, #1
 8003c72:	f24d 5016 	movw	r0, #54550	@ 0xd516
 8003c76:	f7fc feb3 	bl	80009e0 <lcd_write_reg>
 8003c7a:	21ca      	movs	r1, #202	@ 0xca
 8003c7c:	f24d 5017 	movw	r0, #54551	@ 0xd517
 8003c80:	f7fc feae 	bl	80009e0 <lcd_write_reg>
 8003c84:	2102      	movs	r1, #2
 8003c86:	f24d 5018 	movw	r0, #54552	@ 0xd518
 8003c8a:	f7fc fea9 	bl	80009e0 <lcd_write_reg>
 8003c8e:	2100      	movs	r1, #0
 8003c90:	f24d 5019 	movw	r0, #54553	@ 0xd519
 8003c94:	f7fc fea4 	bl	80009e0 <lcd_write_reg>
 8003c98:	2102      	movs	r1, #2
 8003c9a:	f24d 501a 	movw	r0, #54554	@ 0xd51a
 8003c9e:	f7fc fe9f 	bl	80009e0 <lcd_write_reg>
 8003ca2:	2101      	movs	r1, #1
 8003ca4:	f24d 501b 	movw	r0, #54555	@ 0xd51b
 8003ca8:	f7fc fe9a 	bl	80009e0 <lcd_write_reg>
 8003cac:	2102      	movs	r1, #2
 8003cae:	f24d 501c 	movw	r0, #54556	@ 0xd51c
 8003cb2:	f7fc fe95 	bl	80009e0 <lcd_write_reg>
 8003cb6:	2134      	movs	r1, #52	@ 0x34
 8003cb8:	f24d 501d 	movw	r0, #54557	@ 0xd51d
 8003cbc:	f7fc fe90 	bl	80009e0 <lcd_write_reg>
 8003cc0:	2102      	movs	r1, #2
 8003cc2:	f24d 501e 	movw	r0, #54558	@ 0xd51e
 8003cc6:	f7fc fe8b 	bl	80009e0 <lcd_write_reg>
 8003cca:	2167      	movs	r1, #103	@ 0x67
 8003ccc:	f24d 501f 	movw	r0, #54559	@ 0xd51f
 8003cd0:	f7fc fe86 	bl	80009e0 <lcd_write_reg>
 8003cd4:	2102      	movs	r1, #2
 8003cd6:	f24d 5020 	movw	r0, #54560	@ 0xd520
 8003cda:	f7fc fe81 	bl	80009e0 <lcd_write_reg>
 8003cde:	2184      	movs	r1, #132	@ 0x84
 8003ce0:	f24d 5021 	movw	r0, #54561	@ 0xd521
 8003ce4:	f7fc fe7c 	bl	80009e0 <lcd_write_reg>
 8003ce8:	2102      	movs	r1, #2
 8003cea:	f24d 5022 	movw	r0, #54562	@ 0xd522
 8003cee:	f7fc fe77 	bl	80009e0 <lcd_write_reg>
 8003cf2:	21a4      	movs	r1, #164	@ 0xa4
 8003cf4:	f24d 5023 	movw	r0, #54563	@ 0xd523
 8003cf8:	f7fc fe72 	bl	80009e0 <lcd_write_reg>
 8003cfc:	2102      	movs	r1, #2
 8003cfe:	f24d 5024 	movw	r0, #54564	@ 0xd524
 8003d02:	f7fc fe6d 	bl	80009e0 <lcd_write_reg>
 8003d06:	21b7      	movs	r1, #183	@ 0xb7
 8003d08:	f24d 5025 	movw	r0, #54565	@ 0xd525
 8003d0c:	f7fc fe68 	bl	80009e0 <lcd_write_reg>
 8003d10:	2102      	movs	r1, #2
 8003d12:	f24d 5026 	movw	r0, #54566	@ 0xd526
 8003d16:	f7fc fe63 	bl	80009e0 <lcd_write_reg>
 8003d1a:	21cf      	movs	r1, #207	@ 0xcf
 8003d1c:	f24d 5027 	movw	r0, #54567	@ 0xd527
 8003d20:	f7fc fe5e 	bl	80009e0 <lcd_write_reg>
 8003d24:	2102      	movs	r1, #2
 8003d26:	f24d 5028 	movw	r0, #54568	@ 0xd528
 8003d2a:	f7fc fe59 	bl	80009e0 <lcd_write_reg>
 8003d2e:	21de      	movs	r1, #222	@ 0xde
 8003d30:	f24d 5029 	movw	r0, #54569	@ 0xd529
 8003d34:	f7fc fe54 	bl	80009e0 <lcd_write_reg>
 8003d38:	2102      	movs	r1, #2
 8003d3a:	f24d 502a 	movw	r0, #54570	@ 0xd52a
 8003d3e:	f7fc fe4f 	bl	80009e0 <lcd_write_reg>
 8003d42:	21f2      	movs	r1, #242	@ 0xf2
 8003d44:	f24d 502b 	movw	r0, #54571	@ 0xd52b
 8003d48:	f7fc fe4a 	bl	80009e0 <lcd_write_reg>
 8003d4c:	2102      	movs	r1, #2
 8003d4e:	f24d 502c 	movw	r0, #54572	@ 0xd52c
 8003d52:	f7fc fe45 	bl	80009e0 <lcd_write_reg>
 8003d56:	21fe      	movs	r1, #254	@ 0xfe
 8003d58:	f24d 502d 	movw	r0, #54573	@ 0xd52d
 8003d5c:	f7fc fe40 	bl	80009e0 <lcd_write_reg>
 8003d60:	2103      	movs	r1, #3
 8003d62:	f24d 502e 	movw	r0, #54574	@ 0xd52e
 8003d66:	f7fc fe3b 	bl	80009e0 <lcd_write_reg>
 8003d6a:	2110      	movs	r1, #16
 8003d6c:	f24d 502f 	movw	r0, #54575	@ 0xd52f
 8003d70:	f7fc fe36 	bl	80009e0 <lcd_write_reg>
 8003d74:	2103      	movs	r1, #3
 8003d76:	f24d 5030 	movw	r0, #54576	@ 0xd530
 8003d7a:	f7fc fe31 	bl	80009e0 <lcd_write_reg>
 8003d7e:	2133      	movs	r1, #51	@ 0x33
 8003d80:	f24d 5031 	movw	r0, #54577	@ 0xd531
 8003d84:	f7fc fe2c 	bl	80009e0 <lcd_write_reg>
 8003d88:	2103      	movs	r1, #3
 8003d8a:	f24d 5032 	movw	r0, #54578	@ 0xd532
 8003d8e:	f7fc fe27 	bl	80009e0 <lcd_write_reg>
 8003d92:	216d      	movs	r1, #109	@ 0x6d
 8003d94:	f24d 5033 	movw	r0, #54579	@ 0xd533
 8003d98:	f7fc fe22 	bl	80009e0 <lcd_write_reg>
 8003d9c:	2100      	movs	r1, #0
 8003d9e:	f44f 4056 	mov.w	r0, #54784	@ 0xd600
 8003da2:	f7fc fe1d 	bl	80009e0 <lcd_write_reg>
 8003da6:	2133      	movs	r1, #51	@ 0x33
 8003da8:	f24d 6001 	movw	r0, #54785	@ 0xd601
 8003dac:	f7fc fe18 	bl	80009e0 <lcd_write_reg>
 8003db0:	2100      	movs	r1, #0
 8003db2:	f24d 6002 	movw	r0, #54786	@ 0xd602
 8003db6:	f7fc fe13 	bl	80009e0 <lcd_write_reg>
 8003dba:	2134      	movs	r1, #52	@ 0x34
 8003dbc:	f24d 6003 	movw	r0, #54787	@ 0xd603
 8003dc0:	f7fc fe0e 	bl	80009e0 <lcd_write_reg>
 8003dc4:	2100      	movs	r1, #0
 8003dc6:	f24d 6004 	movw	r0, #54788	@ 0xd604
 8003dca:	f7fc fe09 	bl	80009e0 <lcd_write_reg>
 8003dce:	213a      	movs	r1, #58	@ 0x3a
 8003dd0:	f24d 6005 	movw	r0, #54789	@ 0xd605
 8003dd4:	f7fc fe04 	bl	80009e0 <lcd_write_reg>
 8003dd8:	2100      	movs	r1, #0
 8003dda:	f24d 6006 	movw	r0, #54790	@ 0xd606
 8003dde:	f7fc fdff 	bl	80009e0 <lcd_write_reg>
 8003de2:	214a      	movs	r1, #74	@ 0x4a
 8003de4:	f24d 6007 	movw	r0, #54791	@ 0xd607
 8003de8:	f7fc fdfa 	bl	80009e0 <lcd_write_reg>
 8003dec:	2100      	movs	r1, #0
 8003dee:	f24d 6008 	movw	r0, #54792	@ 0xd608
 8003df2:	f7fc fdf5 	bl	80009e0 <lcd_write_reg>
 8003df6:	215c      	movs	r1, #92	@ 0x5c
 8003df8:	f24d 6009 	movw	r0, #54793	@ 0xd609
 8003dfc:	f7fc fdf0 	bl	80009e0 <lcd_write_reg>
 8003e00:	2100      	movs	r1, #0
 8003e02:	f24d 600a 	movw	r0, #54794	@ 0xd60a
 8003e06:	f7fc fdeb 	bl	80009e0 <lcd_write_reg>
 8003e0a:	2181      	movs	r1, #129	@ 0x81
 8003e0c:	f24d 600b 	movw	r0, #54795	@ 0xd60b
 8003e10:	f7fc fde6 	bl	80009e0 <lcd_write_reg>
 8003e14:	2100      	movs	r1, #0
 8003e16:	f24d 600c 	movw	r0, #54796	@ 0xd60c
 8003e1a:	f7fc fde1 	bl	80009e0 <lcd_write_reg>
 8003e1e:	21a6      	movs	r1, #166	@ 0xa6
 8003e20:	f24d 600d 	movw	r0, #54797	@ 0xd60d
 8003e24:	f7fc fddc 	bl	80009e0 <lcd_write_reg>
 8003e28:	2100      	movs	r1, #0
 8003e2a:	f24d 600e 	movw	r0, #54798	@ 0xd60e
 8003e2e:	f7fc fdd7 	bl	80009e0 <lcd_write_reg>
 8003e32:	21e5      	movs	r1, #229	@ 0xe5
 8003e34:	f24d 600f 	movw	r0, #54799	@ 0xd60f
 8003e38:	f7fc fdd2 	bl	80009e0 <lcd_write_reg>
 8003e3c:	2101      	movs	r1, #1
 8003e3e:	f24d 6010 	movw	r0, #54800	@ 0xd610
 8003e42:	f7fc fdcd 	bl	80009e0 <lcd_write_reg>
 8003e46:	2113      	movs	r1, #19
 8003e48:	f24d 6011 	movw	r0, #54801	@ 0xd611
 8003e4c:	f7fc fdc8 	bl	80009e0 <lcd_write_reg>
 8003e50:	2101      	movs	r1, #1
 8003e52:	f24d 6012 	movw	r0, #54802	@ 0xd612
 8003e56:	f7fc fdc3 	bl	80009e0 <lcd_write_reg>
 8003e5a:	2154      	movs	r1, #84	@ 0x54
 8003e5c:	f24d 6013 	movw	r0, #54803	@ 0xd613
 8003e60:	f7fc fdbe 	bl	80009e0 <lcd_write_reg>
 8003e64:	2101      	movs	r1, #1
 8003e66:	f24d 6014 	movw	r0, #54804	@ 0xd614
 8003e6a:	f7fc fdb9 	bl	80009e0 <lcd_write_reg>
 8003e6e:	2182      	movs	r1, #130	@ 0x82
 8003e70:	f24d 6015 	movw	r0, #54805	@ 0xd615
 8003e74:	f7fc fdb4 	bl	80009e0 <lcd_write_reg>
 8003e78:	2101      	movs	r1, #1
 8003e7a:	f24d 6016 	movw	r0, #54806	@ 0xd616
 8003e7e:	f7fc fdaf 	bl	80009e0 <lcd_write_reg>
 8003e82:	21ca      	movs	r1, #202	@ 0xca
 8003e84:	f24d 6017 	movw	r0, #54807	@ 0xd617
 8003e88:	f7fc fdaa 	bl	80009e0 <lcd_write_reg>
 8003e8c:	2102      	movs	r1, #2
 8003e8e:	f24d 6018 	movw	r0, #54808	@ 0xd618
 8003e92:	f7fc fda5 	bl	80009e0 <lcd_write_reg>
 8003e96:	2100      	movs	r1, #0
 8003e98:	f24d 6019 	movw	r0, #54809	@ 0xd619
 8003e9c:	f7fc fda0 	bl	80009e0 <lcd_write_reg>
 8003ea0:	2102      	movs	r1, #2
 8003ea2:	f24d 601a 	movw	r0, #54810	@ 0xd61a
 8003ea6:	f7fc fd9b 	bl	80009e0 <lcd_write_reg>
 8003eaa:	2101      	movs	r1, #1
 8003eac:	f24d 601b 	movw	r0, #54811	@ 0xd61b
 8003eb0:	f7fc fd96 	bl	80009e0 <lcd_write_reg>
 8003eb4:	2102      	movs	r1, #2
 8003eb6:	f24d 601c 	movw	r0, #54812	@ 0xd61c
 8003eba:	f7fc fd91 	bl	80009e0 <lcd_write_reg>
 8003ebe:	2134      	movs	r1, #52	@ 0x34
 8003ec0:	f24d 601d 	movw	r0, #54813	@ 0xd61d
 8003ec4:	f7fc fd8c 	bl	80009e0 <lcd_write_reg>
 8003ec8:	2102      	movs	r1, #2
 8003eca:	f24d 601e 	movw	r0, #54814	@ 0xd61e
 8003ece:	f7fc fd87 	bl	80009e0 <lcd_write_reg>
 8003ed2:	2167      	movs	r1, #103	@ 0x67
 8003ed4:	f24d 601f 	movw	r0, #54815	@ 0xd61f
 8003ed8:	f7fc fd82 	bl	80009e0 <lcd_write_reg>
 8003edc:	2102      	movs	r1, #2
 8003ede:	f24d 6020 	movw	r0, #54816	@ 0xd620
 8003ee2:	f7fc fd7d 	bl	80009e0 <lcd_write_reg>
 8003ee6:	2184      	movs	r1, #132	@ 0x84
 8003ee8:	f24d 6021 	movw	r0, #54817	@ 0xd621
 8003eec:	f7fc fd78 	bl	80009e0 <lcd_write_reg>
 8003ef0:	2102      	movs	r1, #2
 8003ef2:	f24d 6022 	movw	r0, #54818	@ 0xd622
 8003ef6:	f7fc fd73 	bl	80009e0 <lcd_write_reg>
 8003efa:	21a4      	movs	r1, #164	@ 0xa4
 8003efc:	f24d 6023 	movw	r0, #54819	@ 0xd623
 8003f00:	f7fc fd6e 	bl	80009e0 <lcd_write_reg>
 8003f04:	2102      	movs	r1, #2
 8003f06:	f24d 6024 	movw	r0, #54820	@ 0xd624
 8003f0a:	f7fc fd69 	bl	80009e0 <lcd_write_reg>
 8003f0e:	21b7      	movs	r1, #183	@ 0xb7
 8003f10:	f24d 6025 	movw	r0, #54821	@ 0xd625
 8003f14:	f7fc fd64 	bl	80009e0 <lcd_write_reg>
 8003f18:	2102      	movs	r1, #2
 8003f1a:	f24d 6026 	movw	r0, #54822	@ 0xd626
 8003f1e:	f7fc fd5f 	bl	80009e0 <lcd_write_reg>
 8003f22:	21cf      	movs	r1, #207	@ 0xcf
 8003f24:	f24d 6027 	movw	r0, #54823	@ 0xd627
 8003f28:	f7fc fd5a 	bl	80009e0 <lcd_write_reg>
 8003f2c:	2102      	movs	r1, #2
 8003f2e:	f24d 6028 	movw	r0, #54824	@ 0xd628
 8003f32:	f7fc fd55 	bl	80009e0 <lcd_write_reg>
 8003f36:	21de      	movs	r1, #222	@ 0xde
 8003f38:	f24d 6029 	movw	r0, #54825	@ 0xd629
 8003f3c:	f7fc fd50 	bl	80009e0 <lcd_write_reg>
 8003f40:	2102      	movs	r1, #2
 8003f42:	f24d 602a 	movw	r0, #54826	@ 0xd62a
 8003f46:	f7fc fd4b 	bl	80009e0 <lcd_write_reg>
 8003f4a:	21f2      	movs	r1, #242	@ 0xf2
 8003f4c:	f24d 602b 	movw	r0, #54827	@ 0xd62b
 8003f50:	f7fc fd46 	bl	80009e0 <lcd_write_reg>
 8003f54:	2102      	movs	r1, #2
 8003f56:	f24d 602c 	movw	r0, #54828	@ 0xd62c
 8003f5a:	f7fc fd41 	bl	80009e0 <lcd_write_reg>
 8003f5e:	21fe      	movs	r1, #254	@ 0xfe
 8003f60:	f24d 602d 	movw	r0, #54829	@ 0xd62d
 8003f64:	f7fc fd3c 	bl	80009e0 <lcd_write_reg>
 8003f68:	2103      	movs	r1, #3
 8003f6a:	f24d 602e 	movw	r0, #54830	@ 0xd62e
 8003f6e:	f7fc fd37 	bl	80009e0 <lcd_write_reg>
 8003f72:	2110      	movs	r1, #16
 8003f74:	f24d 602f 	movw	r0, #54831	@ 0xd62f
 8003f78:	f7fc fd32 	bl	80009e0 <lcd_write_reg>
 8003f7c:	2103      	movs	r1, #3
 8003f7e:	f24d 6030 	movw	r0, #54832	@ 0xd630
 8003f82:	f7fc fd2d 	bl	80009e0 <lcd_write_reg>
 8003f86:	2133      	movs	r1, #51	@ 0x33
 8003f88:	f24d 6031 	movw	r0, #54833	@ 0xd631
 8003f8c:	f7fc fd28 	bl	80009e0 <lcd_write_reg>
 8003f90:	2103      	movs	r1, #3
 8003f92:	f24d 6032 	movw	r0, #54834	@ 0xd632
 8003f96:	f7fc fd23 	bl	80009e0 <lcd_write_reg>
 8003f9a:	216d      	movs	r1, #109	@ 0x6d
 8003f9c:	f24d 6033 	movw	r0, #54835	@ 0xd633
 8003fa0:	f7fc fd1e 	bl	80009e0 <lcd_write_reg>
 8003fa4:	2155      	movs	r1, #85	@ 0x55
 8003fa6:	f44f 4070 	mov.w	r0, #61440	@ 0xf000
 8003faa:	f7fc fd19 	bl	80009e0 <lcd_write_reg>
 8003fae:	21aa      	movs	r1, #170	@ 0xaa
 8003fb0:	f24f 0001 	movw	r0, #61441	@ 0xf001
 8003fb4:	f7fc fd14 	bl	80009e0 <lcd_write_reg>
 8003fb8:	2152      	movs	r1, #82	@ 0x52
 8003fba:	f24f 0002 	movw	r0, #61442	@ 0xf002
 8003fbe:	f7fc fd0f 	bl	80009e0 <lcd_write_reg>
 8003fc2:	2108      	movs	r1, #8
 8003fc4:	f24f 0003 	movw	r0, #61443	@ 0xf003
 8003fc8:	f7fc fd0a 	bl	80009e0 <lcd_write_reg>
 8003fcc:	2100      	movs	r1, #0
 8003fce:	f24f 0004 	movw	r0, #61444	@ 0xf004
 8003fd2:	f7fc fd05 	bl	80009e0 <lcd_write_reg>
 8003fd6:	21cc      	movs	r1, #204	@ 0xcc
 8003fd8:	f44f 4031 	mov.w	r0, #45312	@ 0xb100
 8003fdc:	f7fc fd00 	bl	80009e0 <lcd_write_reg>
 8003fe0:	2100      	movs	r1, #0
 8003fe2:	f24b 1001 	movw	r0, #45313	@ 0xb101
 8003fe6:	f7fc fcfb 	bl	80009e0 <lcd_write_reg>
 8003fea:	2105      	movs	r1, #5
 8003fec:	f44f 4036 	mov.w	r0, #46592	@ 0xb600
 8003ff0:	f7fc fcf6 	bl	80009e0 <lcd_write_reg>
 8003ff4:	2170      	movs	r1, #112	@ 0x70
 8003ff6:	f44f 4037 	mov.w	r0, #46848	@ 0xb700
 8003ffa:	f7fc fcf1 	bl	80009e0 <lcd_write_reg>
 8003ffe:	f24b 7001 	movw	r0, #46849	@ 0xb701
 8004002:	f7fc fced 	bl	80009e0 <lcd_write_reg>
 8004006:	2101      	movs	r1, #1
 8004008:	f44f 4038 	mov.w	r0, #47104	@ 0xb800
 800400c:	f7fc fce8 	bl	80009e0 <lcd_write_reg>
 8004010:	2103      	movs	r1, #3
 8004012:	f64b 0001 	movw	r0, #47105	@ 0xb801
 8004016:	f7fc fce3 	bl	80009e0 <lcd_write_reg>
 800401a:	f64b 0002 	movw	r0, #47106	@ 0xb802
 800401e:	f7fc fcdf 	bl	80009e0 <lcd_write_reg>
 8004022:	f64b 0003 	movw	r0, #47107	@ 0xb803
 8004026:	f7fc fcdb 	bl	80009e0 <lcd_write_reg>
 800402a:	2102      	movs	r1, #2
 800402c:	f44f 403c 	mov.w	r0, #48128	@ 0xbc00
 8004030:	f7fc fcd6 	bl	80009e0 <lcd_write_reg>
 8004034:	2100      	movs	r1, #0
 8004036:	f64b 4001 	movw	r0, #48129	@ 0xbc01
 800403a:	f7fc fcd1 	bl	80009e0 <lcd_write_reg>
 800403e:	f64b 4002 	movw	r0, #48130	@ 0xbc02
 8004042:	f7fc fccd 	bl	80009e0 <lcd_write_reg>
 8004046:	21d0      	movs	r1, #208	@ 0xd0
 8004048:	f44f 4049 	mov.w	r0, #51456	@ 0xc900
 800404c:	f7fc fcc8 	bl	80009e0 <lcd_write_reg>
 8004050:	2102      	movs	r1, #2
 8004052:	f64c 1001 	movw	r0, #51457	@ 0xc901
 8004056:	f7fc fcc3 	bl	80009e0 <lcd_write_reg>
 800405a:	2150      	movs	r1, #80	@ 0x50
 800405c:	f64c 1002 	movw	r0, #51458	@ 0xc902
 8004060:	f7fc fcbe 	bl	80009e0 <lcd_write_reg>
 8004064:	f64c 1003 	movw	r0, #51459	@ 0xc903
 8004068:	f7fc fcba 	bl	80009e0 <lcd_write_reg>
 800406c:	f64c 1004 	movw	r0, #51460	@ 0xc904
 8004070:	f7fc fcb6 	bl	80009e0 <lcd_write_reg>
 8004074:	2100      	movs	r1, #0
 8004076:	f44f 5054 	mov.w	r0, #13568	@ 0x3500
 800407a:	f7fc fcb1 	bl	80009e0 <lcd_write_reg>
 800407e:	2155      	movs	r1, #85	@ 0x55
 8004080:	f44f 5068 	mov.w	r0, #14848	@ 0x3a00
 8004084:	f7fc fcac 	bl	80009e0 <lcd_write_reg>
 8004088:	f04f 7500 	mov.w	r5, #33554432	@ 0x2000000
 800408c:	f04f 7680 	mov.w	r6, #16777216	@ 0x1000000
 8004090:	f44f 5288 	mov.w	r2, #4352	@ 0x1100
 8004094:	4c0f      	ldr	r4, [pc, #60]	@ (80040d4 <lcd_init+0x2e18>)
 8004096:	f8cb 6010 	str.w	r6, [fp, #16]
 800409a:	f44f 0000 	mov.w	r0, #8388608	@ 0x800000
 800409e:	f8cb 5010 	str.w	r5, [fp, #16]
 80040a2:	2180      	movs	r1, #128	@ 0x80
 80040a4:	60e2      	str	r2, [r4, #12]
 80040a6:	f44f 7200 	mov.w	r2, #512	@ 0x200
 80040aa:	f8cb 0010 	str.w	r0, [fp, #16]
 80040ae:	f8cb 1010 	str.w	r1, [fp, #16]
 80040b2:	f8cb 2010 	str.w	r2, [fp, #16]
 80040b6:	f8cb 6010 	str.w	r6, [fp, #16]
 80040ba:	f8cb 5010 	str.w	r5, [fp, #16]
 80040be:	f44f 5524 	mov.w	r5, #10496	@ 0x2900
 80040c2:	60e5      	str	r5, [r4, #12]
 80040c4:	f8cb 0010 	str.w	r0, [fp, #16]
 80040c8:	f8cb 1010 	str.w	r1, [fp, #16]
 80040cc:	f8cb 2010 	str.w	r2, [fp, #16]
 80040d0:	f7fd bc0e 	b.w	80018f0 <lcd_init+0x634>
 80040d4:	40010c00 	.word	0x40010c00
 80040d8:	f649 0106 	movw	r1, #38918	@ 0x9806
 80040dc:	428a      	cmp	r2, r1
 80040de:	f040 8264 	bne.w	80045aa <lcd_init+0x32ee>
 80040e2:	2480      	movs	r4, #128	@ 0x80
 80040e4:	f04f 7980 	mov.w	r9, #16777216	@ 0x1000000
 80040e8:	f04f 7800 	mov.w	r8, #33554432	@ 0x2000000
 80040ec:	f44f 0600 	mov.w	r6, #8388608	@ 0x800000
 80040f0:	f44f 7500 	mov.w	r5, #512	@ 0x200
 80040f4:	21ff      	movs	r1, #255	@ 0xff
 80040f6:	4ff5      	ldr	r7, [pc, #980]	@ (80044cc <lcd_init+0x3210>)
 80040f8:	f8cb 9010 	str.w	r9, [fp, #16]
 80040fc:	4608      	mov	r0, r1
 80040fe:	f8cb 8010 	str.w	r8, [fp, #16]
 8004102:	60f9      	str	r1, [r7, #12]
 8004104:	f8cb 6010 	str.w	r6, [fp, #16]
 8004108:	f8cb 4010 	str.w	r4, [fp, #16]
 800410c:	f8cb 5010 	str.w	r5, [fp, #16]
 8004110:	f7fc fc50 	bl	80009b4 <lcd_wr_xdata>
 8004114:	2098      	movs	r0, #152	@ 0x98
 8004116:	f7fc fc4d 	bl	80009b4 <lcd_wr_xdata>
 800411a:	2006      	movs	r0, #6
 800411c:	f7fc fc4a 	bl	80009b4 <lcd_wr_xdata>
 8004120:	22bc      	movs	r2, #188	@ 0xbc
 8004122:	f8cb 9010 	str.w	r9, [fp, #16]
 8004126:	2001      	movs	r0, #1
 8004128:	f8cb 8010 	str.w	r8, [fp, #16]
 800412c:	60fa      	str	r2, [r7, #12]
 800412e:	f8cb 6010 	str.w	r6, [fp, #16]
 8004132:	f8cb 4010 	str.w	r4, [fp, #16]
 8004136:	f8cb 5010 	str.w	r5, [fp, #16]
 800413a:	f7fc fc3b 	bl	80009b4 <lcd_wr_xdata>
 800413e:	200f      	movs	r0, #15
 8004140:	f7fc fc38 	bl	80009b4 <lcd_wr_xdata>
 8004144:	2061      	movs	r0, #97	@ 0x61
 8004146:	f7fc fc35 	bl	80009b4 <lcd_wr_xdata>
 800414a:	4608      	mov	r0, r1
 800414c:	f7fc fc32 	bl	80009b4 <lcd_wr_xdata>
 8004150:	2001      	movs	r0, #1
 8004152:	f7fc fc2f 	bl	80009b4 <lcd_wr_xdata>
 8004156:	f7fc fc2d 	bl	80009b4 <lcd_wr_xdata>
 800415a:	200b      	movs	r0, #11
 800415c:	f7fc fc2a 	bl	80009b4 <lcd_wr_xdata>
 8004160:	2010      	movs	r0, #16
 8004162:	f7fc fc27 	bl	80009b4 <lcd_wr_xdata>
 8004166:	2037      	movs	r0, #55	@ 0x37
 8004168:	f7fc fc24 	bl	80009b4 <lcd_wr_xdata>
 800416c:	2063      	movs	r0, #99	@ 0x63
 800416e:	f7fc fc21 	bl	80009b4 <lcd_wr_xdata>
 8004172:	4608      	mov	r0, r1
 8004174:	f7fc fc1e 	bl	80009b4 <lcd_wr_xdata>
 8004178:	f7fc fc1c 	bl	80009b4 <lcd_wr_xdata>
 800417c:	2001      	movs	r0, #1
 800417e:	f7fc fc19 	bl	80009b4 <lcd_wr_xdata>
 8004182:	f7fc fc17 	bl	80009b4 <lcd_wr_xdata>
 8004186:	2000      	movs	r0, #0
 8004188:	f7fc fc14 	bl	80009b4 <lcd_wr_xdata>
 800418c:	f7fc fc12 	bl	80009b4 <lcd_wr_xdata>
 8004190:	4608      	mov	r0, r1
 8004192:	f7fc fc0f 	bl	80009b4 <lcd_wr_xdata>
 8004196:	2052      	movs	r0, #82	@ 0x52
 8004198:	f7fc fc0c 	bl	80009b4 <lcd_wr_xdata>
 800419c:	2001      	movs	r0, #1
 800419e:	f7fc fc09 	bl	80009b4 <lcd_wr_xdata>
 80041a2:	2000      	movs	r0, #0
 80041a4:	f7fc fc06 	bl	80009b4 <lcd_wr_xdata>
 80041a8:	2040      	movs	r0, #64	@ 0x40
 80041aa:	f7fc fc03 	bl	80009b4 <lcd_wr_xdata>
 80041ae:	22bd      	movs	r2, #189	@ 0xbd
 80041b0:	f8cb 9010 	str.w	r9, [fp, #16]
 80041b4:	2001      	movs	r0, #1
 80041b6:	f8cb 8010 	str.w	r8, [fp, #16]
 80041ba:	60fa      	str	r2, [r7, #12]
 80041bc:	f8cb 6010 	str.w	r6, [fp, #16]
 80041c0:	f8cb 4010 	str.w	r4, [fp, #16]
 80041c4:	f8cb 5010 	str.w	r5, [fp, #16]
 80041c8:	f7fc fbf4 	bl	80009b4 <lcd_wr_xdata>
 80041cc:	2023      	movs	r0, #35	@ 0x23
 80041ce:	f7fc fbf1 	bl	80009b4 <lcd_wr_xdata>
 80041d2:	2045      	movs	r0, #69	@ 0x45
 80041d4:	f7fc fbee 	bl	80009b4 <lcd_wr_xdata>
 80041d8:	2067      	movs	r0, #103	@ 0x67
 80041da:	f7fc fbeb 	bl	80009b4 <lcd_wr_xdata>
 80041de:	2001      	movs	r0, #1
 80041e0:	f7fc fbe8 	bl	80009b4 <lcd_wr_xdata>
 80041e4:	2023      	movs	r0, #35	@ 0x23
 80041e6:	f7fc fbe5 	bl	80009b4 <lcd_wr_xdata>
 80041ea:	2045      	movs	r0, #69	@ 0x45
 80041ec:	f7fc fbe2 	bl	80009b4 <lcd_wr_xdata>
 80041f0:	2067      	movs	r0, #103	@ 0x67
 80041f2:	f7fc fbdf 	bl	80009b4 <lcd_wr_xdata>
 80041f6:	22be      	movs	r2, #190	@ 0xbe
 80041f8:	f8cb 9010 	str.w	r9, [fp, #16]
 80041fc:	2000      	movs	r0, #0
 80041fe:	f8cb 8010 	str.w	r8, [fp, #16]
 8004202:	60fa      	str	r2, [r7, #12]
 8004204:	f8cb 6010 	str.w	r6, [fp, #16]
 8004208:	f8cb 4010 	str.w	r4, [fp, #16]
 800420c:	f8cb 5010 	str.w	r5, [fp, #16]
 8004210:	f7fc fbd0 	bl	80009b4 <lcd_wr_xdata>
 8004214:	2001      	movs	r0, #1
 8004216:	f7fc fbcd 	bl	80009b4 <lcd_wr_xdata>
 800421a:	20ab      	movs	r0, #171	@ 0xab
 800421c:	f7fc fbca 	bl	80009b4 <lcd_wr_xdata>
 8004220:	2060      	movs	r0, #96	@ 0x60
 8004222:	f7fc fbc7 	bl	80009b4 <lcd_wr_xdata>
 8004226:	2022      	movs	r0, #34	@ 0x22
 8004228:	f7fc fbc4 	bl	80009b4 <lcd_wr_xdata>
 800422c:	f7fc fbc2 	bl	80009b4 <lcd_wr_xdata>
 8004230:	f7fc fbc0 	bl	80009b4 <lcd_wr_xdata>
 8004234:	f7fc fbbe 	bl	80009b4 <lcd_wr_xdata>
 8004238:	f7fc fbbc 	bl	80009b4 <lcd_wr_xdata>
 800423c:	22c7      	movs	r2, #199	@ 0xc7
 800423e:	f8cb 9010 	str.w	r9, [fp, #16]
 8004242:	2036      	movs	r0, #54	@ 0x36
 8004244:	f8cb 8010 	str.w	r8, [fp, #16]
 8004248:	60fa      	str	r2, [r7, #12]
 800424a:	f8cb 6010 	str.w	r6, [fp, #16]
 800424e:	f8cb 4010 	str.w	r4, [fp, #16]
 8004252:	f8cb 5010 	str.w	r5, [fp, #16]
 8004256:	f7fc fbad 	bl	80009b4 <lcd_wr_xdata>
 800425a:	22ed      	movs	r2, #237	@ 0xed
 800425c:	f8cb 9010 	str.w	r9, [fp, #16]
 8004260:	207f      	movs	r0, #127	@ 0x7f
 8004262:	f8cb 8010 	str.w	r8, [fp, #16]
 8004266:	60fa      	str	r2, [r7, #12]
 8004268:	f8cb 6010 	str.w	r6, [fp, #16]
 800426c:	f8cb 4010 	str.w	r4, [fp, #16]
 8004270:	f8cb 5010 	str.w	r5, [fp, #16]
 8004274:	f7fc fb9e 	bl	80009b4 <lcd_wr_xdata>
 8004278:	200f      	movs	r0, #15
 800427a:	f7fc fb9b 	bl	80009b4 <lcd_wr_xdata>
 800427e:	22c0      	movs	r2, #192	@ 0xc0
 8004280:	f8cb 9010 	str.w	r9, [fp, #16]
 8004284:	f8cb 8010 	str.w	r8, [fp, #16]
 8004288:	60fa      	str	r2, [r7, #12]
 800428a:	f8cb 6010 	str.w	r6, [fp, #16]
 800428e:	f8cb 4010 	str.w	r4, [fp, #16]
 8004292:	f8cb 5010 	str.w	r5, [fp, #16]
 8004296:	f7fc fb8d 	bl	80009b4 <lcd_wr_xdata>
 800429a:	200b      	movs	r0, #11
 800429c:	f7fc fb8a 	bl	80009b4 <lcd_wr_xdata>
 80042a0:	200a      	movs	r0, #10
 80042a2:	f7fc fb87 	bl	80009b4 <lcd_wr_xdata>
 80042a6:	22fc      	movs	r2, #252	@ 0xfc
 80042a8:	21df      	movs	r1, #223	@ 0xdf
 80042aa:	f8cb 9010 	str.w	r9, [fp, #16]
 80042ae:	2008      	movs	r0, #8
 80042b0:	f8cb 8010 	str.w	r8, [fp, #16]
 80042b4:	60fa      	str	r2, [r7, #12]
 80042b6:	f8cb 6010 	str.w	r6, [fp, #16]
 80042ba:	f8cb 4010 	str.w	r4, [fp, #16]
 80042be:	f8cb 5010 	str.w	r5, [fp, #16]
 80042c2:	f7fc fb77 	bl	80009b4 <lcd_wr_xdata>
 80042c6:	f8cb 9010 	str.w	r9, [fp, #16]
 80042ca:	2000      	movs	r0, #0
 80042cc:	f8cb 8010 	str.w	r8, [fp, #16]
 80042d0:	60f9      	str	r1, [r7, #12]
 80042d2:	f8cb 6010 	str.w	r6, [fp, #16]
 80042d6:	f8cb 4010 	str.w	r4, [fp, #16]
 80042da:	f8cb 5010 	str.w	r5, [fp, #16]
 80042de:	f7fc fb69 	bl	80009b4 <lcd_wr_xdata>
 80042e2:	f7fc fb67 	bl	80009b4 <lcd_wr_xdata>
 80042e6:	f7fc fb65 	bl	80009b4 <lcd_wr_xdata>
 80042ea:	f7fc fb63 	bl	80009b4 <lcd_wr_xdata>
 80042ee:	f7fc fb61 	bl	80009b4 <lcd_wr_xdata>
 80042f2:	2020      	movs	r0, #32
 80042f4:	f7fc fb5e 	bl	80009b4 <lcd_wr_xdata>
 80042f8:	22f3      	movs	r2, #243	@ 0xf3
 80042fa:	f8cb 9010 	str.w	r9, [fp, #16]
 80042fe:	2074      	movs	r0, #116	@ 0x74
 8004300:	f8cb 8010 	str.w	r8, [fp, #16]
 8004304:	60fa      	str	r2, [r7, #12]
 8004306:	f8cb 6010 	str.w	r6, [fp, #16]
 800430a:	f8cb 4010 	str.w	r4, [fp, #16]
 800430e:	f8cb 5010 	str.w	r5, [fp, #16]
 8004312:	f7fc fb4f 	bl	80009b4 <lcd_wr_xdata>
 8004316:	22b4      	movs	r2, #180	@ 0xb4
 8004318:	f8cb 9010 	str.w	r9, [fp, #16]
 800431c:	2000      	movs	r0, #0
 800431e:	f8cb 8010 	str.w	r8, [fp, #16]
 8004322:	60fa      	str	r2, [r7, #12]
 8004324:	f8cb 6010 	str.w	r6, [fp, #16]
 8004328:	f8cb 4010 	str.w	r4, [fp, #16]
 800432c:	f8cb 5010 	str.w	r5, [fp, #16]
 8004330:	f7fc fb40 	bl	80009b4 <lcd_wr_xdata>
 8004334:	f7fc fb3e 	bl	80009b4 <lcd_wr_xdata>
 8004338:	f7fc fb3c 	bl	80009b4 <lcd_wr_xdata>
 800433c:	22f7      	movs	r2, #247	@ 0xf7
 800433e:	f8cb 9010 	str.w	r9, [fp, #16]
 8004342:	2082      	movs	r0, #130	@ 0x82
 8004344:	f8cb 8010 	str.w	r8, [fp, #16]
 8004348:	60fa      	str	r2, [r7, #12]
 800434a:	f8cb 6010 	str.w	r6, [fp, #16]
 800434e:	f8cb 4010 	str.w	r4, [fp, #16]
 8004352:	f8cb 5010 	str.w	r5, [fp, #16]
 8004356:	f7fc fb2d 	bl	80009b4 <lcd_wr_xdata>
 800435a:	22b1      	movs	r2, #177	@ 0xb1
 800435c:	f8cb 9010 	str.w	r9, [fp, #16]
 8004360:	2000      	movs	r0, #0
 8004362:	f8cb 8010 	str.w	r8, [fp, #16]
 8004366:	60fa      	str	r2, [r7, #12]
 8004368:	f8cb 6010 	str.w	r6, [fp, #16]
 800436c:	f8cb 4010 	str.w	r4, [fp, #16]
 8004370:	f8cb 5010 	str.w	r5, [fp, #16]
 8004374:	f7fc fb1e 	bl	80009b4 <lcd_wr_xdata>
 8004378:	2013      	movs	r0, #19
 800437a:	f7fc fb1b 	bl	80009b4 <lcd_wr_xdata>
 800437e:	f7fc fb19 	bl	80009b4 <lcd_wr_xdata>
 8004382:	22f2      	movs	r2, #242	@ 0xf2
 8004384:	f8cb 9010 	str.w	r9, [fp, #16]
 8004388:	4620      	mov	r0, r4
 800438a:	f8cb 8010 	str.w	r8, [fp, #16]
 800438e:	60fa      	str	r2, [r7, #12]
 8004390:	f8cb 6010 	str.w	r6, [fp, #16]
 8004394:	f8cb 4010 	str.w	r4, [fp, #16]
 8004398:	f8cb 5010 	str.w	r5, [fp, #16]
 800439c:	f7fc fb0a 	bl	80009b4 <lcd_wr_xdata>
 80043a0:	2004      	movs	r0, #4
 80043a2:	f7fc fb07 	bl	80009b4 <lcd_wr_xdata>
 80043a6:	2040      	movs	r0, #64	@ 0x40
 80043a8:	f7fc fb04 	bl	80009b4 <lcd_wr_xdata>
 80043ac:	2028      	movs	r0, #40	@ 0x28
 80043ae:	f7fc fb01 	bl	80009b4 <lcd_wr_xdata>
 80043b2:	22c1      	movs	r2, #193	@ 0xc1
 80043b4:	f8cb 9010 	str.w	r9, [fp, #16]
 80043b8:	2017      	movs	r0, #23
 80043ba:	f8cb 8010 	str.w	r8, [fp, #16]
 80043be:	60fa      	str	r2, [r7, #12]
 80043c0:	f8cb 6010 	str.w	r6, [fp, #16]
 80043c4:	f8cb 4010 	str.w	r4, [fp, #16]
 80043c8:	f8cb 5010 	str.w	r5, [fp, #16]
 80043cc:	f7fc faf2 	bl	80009b4 <lcd_wr_xdata>
 80043d0:	2088      	movs	r0, #136	@ 0x88
 80043d2:	f7fc faef 	bl	80009b4 <lcd_wr_xdata>
 80043d6:	f7fc faed 	bl	80009b4 <lcd_wr_xdata>
 80043da:	2020      	movs	r0, #32
 80043dc:	f7fc faea 	bl	80009b4 <lcd_wr_xdata>
 80043e0:	22e0      	movs	r2, #224	@ 0xe0
 80043e2:	f8cb 9010 	str.w	r9, [fp, #16]
 80043e6:	2000      	movs	r0, #0
 80043e8:	f8cb 8010 	str.w	r8, [fp, #16]
 80043ec:	60fa      	str	r2, [r7, #12]
 80043ee:	f8cb 6010 	str.w	r6, [fp, #16]
 80043f2:	f8cb 4010 	str.w	r4, [fp, #16]
 80043f6:	f8cb 5010 	str.w	r5, [fp, #16]
 80043fa:	f7fc fadb 	bl	80009b4 <lcd_wr_xdata>
 80043fe:	200a      	movs	r0, #10
 8004400:	f7fc fad8 	bl	80009b4 <lcd_wr_xdata>
 8004404:	2012      	movs	r0, #18
 8004406:	f7fc fad5 	bl	80009b4 <lcd_wr_xdata>
 800440a:	2010      	movs	r0, #16
 800440c:	f7fc fad2 	bl	80009b4 <lcd_wr_xdata>
 8004410:	200e      	movs	r0, #14
 8004412:	f7fc facf 	bl	80009b4 <lcd_wr_xdata>
 8004416:	2020      	movs	r0, #32
 8004418:	f7fc facc 	bl	80009b4 <lcd_wr_xdata>
 800441c:	20cc      	movs	r0, #204	@ 0xcc
 800441e:	f7fc fac9 	bl	80009b4 <lcd_wr_xdata>
 8004422:	2007      	movs	r0, #7
 8004424:	f7fc fac6 	bl	80009b4 <lcd_wr_xdata>
 8004428:	2006      	movs	r0, #6
 800442a:	f7fc fac3 	bl	80009b4 <lcd_wr_xdata>
 800442e:	200b      	movs	r0, #11
 8004430:	f7fc fac0 	bl	80009b4 <lcd_wr_xdata>
 8004434:	200e      	movs	r0, #14
 8004436:	f7fc fabd 	bl	80009b4 <lcd_wr_xdata>
 800443a:	200f      	movs	r0, #15
 800443c:	f7fc faba 	bl	80009b4 <lcd_wr_xdata>
 8004440:	200d      	movs	r0, #13
 8004442:	f7fc fab7 	bl	80009b4 <lcd_wr_xdata>
 8004446:	2015      	movs	r0, #21
 8004448:	f7fc fab4 	bl	80009b4 <lcd_wr_xdata>
 800444c:	2010      	movs	r0, #16
 800444e:	f7fc fab1 	bl	80009b4 <lcd_wr_xdata>
 8004452:	2000      	movs	r0, #0
 8004454:	f7fc faae 	bl	80009b4 <lcd_wr_xdata>
 8004458:	22e1      	movs	r2, #225	@ 0xe1
 800445a:	f8cb 9010 	str.w	r9, [fp, #16]
 800445e:	f8cb 8010 	str.w	r8, [fp, #16]
 8004462:	60fa      	str	r2, [r7, #12]
 8004464:	f8cb 6010 	str.w	r6, [fp, #16]
 8004468:	f8cb 4010 	str.w	r4, [fp, #16]
 800446c:	f8cb 5010 	str.w	r5, [fp, #16]
 8004470:	f7fc faa0 	bl	80009b4 <lcd_wr_xdata>
 8004474:	200b      	movs	r0, #11
 8004476:	f7fc fa9d 	bl	80009b4 <lcd_wr_xdata>
 800447a:	2013      	movs	r0, #19
 800447c:	f7fc fa9a 	bl	80009b4 <lcd_wr_xdata>
 8004480:	200d      	movs	r0, #13
 8004482:	f7fc fa97 	bl	80009b4 <lcd_wr_xdata>
 8004486:	200e      	movs	r0, #14
 8004488:	f7fc fa94 	bl	80009b4 <lcd_wr_xdata>
 800448c:	201b      	movs	r0, #27
 800448e:	f7fc fa91 	bl	80009b4 <lcd_wr_xdata>
 8004492:	2071      	movs	r0, #113	@ 0x71
 8004494:	f7fc fa8e 	bl	80009b4 <lcd_wr_xdata>
 8004498:	2006      	movs	r0, #6
 800449a:	f7fc fa8b 	bl	80009b4 <lcd_wr_xdata>
 800449e:	f7fc fa89 	bl	80009b4 <lcd_wr_xdata>
 80044a2:	200a      	movs	r0, #10
 80044a4:	f7fc fa86 	bl	80009b4 <lcd_wr_xdata>
 80044a8:	200f      	movs	r0, #15
 80044aa:	f7fc fa83 	bl	80009b4 <lcd_wr_xdata>
 80044ae:	200e      	movs	r0, #14
 80044b0:	f7fc fa80 	bl	80009b4 <lcd_wr_xdata>
 80044b4:	200f      	movs	r0, #15
 80044b6:	f7fc fa7d 	bl	80009b4 <lcd_wr_xdata>
 80044ba:	2015      	movs	r0, #21
 80044bc:	f7fc fa7a 	bl	80009b4 <lcd_wr_xdata>
 80044c0:	200c      	movs	r0, #12
 80044c2:	f7fc fa77 	bl	80009b4 <lcd_wr_xdata>
 80044c6:	2000      	movs	r0, #0
 80044c8:	e002      	b.n	80044d0 <lcd_init+0x3214>
 80044ca:	bf00      	nop
 80044cc:	40010c00 	.word	0x40010c00
 80044d0:	f7fc fa70 	bl	80009b4 <lcd_wr_xdata>
 80044d4:	222a      	movs	r2, #42	@ 0x2a
 80044d6:	f8cb 9010 	str.w	r9, [fp, #16]
 80044da:	f8cb 8010 	str.w	r8, [fp, #16]
 80044de:	60fa      	str	r2, [r7, #12]
 80044e0:	f8cb 6010 	str.w	r6, [fp, #16]
 80044e4:	f8cb 4010 	str.w	r4, [fp, #16]
 80044e8:	f8cb 5010 	str.w	r5, [fp, #16]
 80044ec:	f7fc fa62 	bl	80009b4 <lcd_wr_xdata>
 80044f0:	f7fc fa60 	bl	80009b4 <lcd_wr_xdata>
 80044f4:	2001      	movs	r0, #1
 80044f6:	f7fc fa5d 	bl	80009b4 <lcd_wr_xdata>
 80044fa:	4608      	mov	r0, r1
 80044fc:	f7fc fa5a 	bl	80009b4 <lcd_wr_xdata>
 8004500:	222b      	movs	r2, #43	@ 0x2b
 8004502:	f8cb 9010 	str.w	r9, [fp, #16]
 8004506:	2000      	movs	r0, #0
 8004508:	f8cb 8010 	str.w	r8, [fp, #16]
 800450c:	60fa      	str	r2, [r7, #12]
 800450e:	f8cb 6010 	str.w	r6, [fp, #16]
 8004512:	f8cb 4010 	str.w	r4, [fp, #16]
 8004516:	f8cb 5010 	str.w	r5, [fp, #16]
 800451a:	f7fc fa4b 	bl	80009b4 <lcd_wr_xdata>
 800451e:	f7fc fa49 	bl	80009b4 <lcd_wr_xdata>
 8004522:	2003      	movs	r0, #3
 8004524:	f7fc fa46 	bl	80009b4 <lcd_wr_xdata>
 8004528:	201f      	movs	r0, #31
 800452a:	f7fc fa43 	bl	80009b4 <lcd_wr_xdata>
 800452e:	223a      	movs	r2, #58	@ 0x3a
 8004530:	f8cb 9010 	str.w	r9, [fp, #16]
 8004534:	2055      	movs	r0, #85	@ 0x55
 8004536:	f8cb 8010 	str.w	r8, [fp, #16]
 800453a:	60fa      	str	r2, [r7, #12]
 800453c:	f8cb 6010 	str.w	r6, [fp, #16]
 8004540:	f8cb 4010 	str.w	r4, [fp, #16]
 8004544:	f8cb 5010 	str.w	r5, [fp, #16]
 8004548:	f7fc fa34 	bl	80009b4 <lcd_wr_xdata>
 800454c:	2236      	movs	r2, #54	@ 0x36
 800454e:	f8cb 9010 	str.w	r9, [fp, #16]
 8004552:	2000      	movs	r0, #0
 8004554:	f8cb 8010 	str.w	r8, [fp, #16]
 8004558:	60fa      	str	r2, [r7, #12]
 800455a:	f8cb 6010 	str.w	r6, [fp, #16]
 800455e:	f8cb 4010 	str.w	r4, [fp, #16]
 8004562:	f8cb 5010 	str.w	r5, [fp, #16]
 8004566:	f7fc fa25 	bl	80009b4 <lcd_wr_xdata>
 800456a:	2211      	movs	r2, #17
 800456c:	f8cb 9010 	str.w	r9, [fp, #16]
 8004570:	2078      	movs	r0, #120	@ 0x78
 8004572:	f8cb 8010 	str.w	r8, [fp, #16]
 8004576:	60fa      	str	r2, [r7, #12]
 8004578:	f8cb 6010 	str.w	r6, [fp, #16]
 800457c:	f8cb 4010 	str.w	r4, [fp, #16]
 8004580:	f8cb 5010 	str.w	r5, [fp, #16]
 8004584:	f000 fb5c 	bl	8004c40 <HAL_Delay>
 8004588:	2229      	movs	r2, #41	@ 0x29
 800458a:	f8cb 9010 	str.w	r9, [fp, #16]
 800458e:	2014      	movs	r0, #20
 8004590:	f8cb 8010 	str.w	r8, [fp, #16]
 8004594:	60fa      	str	r2, [r7, #12]
 8004596:	f8cb 6010 	str.w	r6, [fp, #16]
 800459a:	f8cb 4010 	str.w	r4, [fp, #16]
 800459e:	f8cb 5010 	str.w	r5, [fp, #16]
 80045a2:	f000 fb4d 	bl	8004c40 <HAL_Delay>
 80045a6:	f7fe bc69 	b.w	8002e7c <lcd_init+0x1bc0>
 80045aa:	f641 1163 	movw	r1, #6499	@ 0x1963
 80045ae:	428a      	cmp	r2, r1
 80045b0:	f47d a99e 	bne.w	80018f0 <lcd_init+0x634>
 80045b4:	f04f 7980 	mov.w	r9, #16777216	@ 0x1000000
 80045b8:	f04f 7800 	mov.w	r8, #33554432	@ 0x2000000
 80045bc:	f44f 0600 	mov.w	r6, #8388608	@ 0x800000
 80045c0:	2580      	movs	r5, #128	@ 0x80
 80045c2:	f44f 7400 	mov.w	r4, #512	@ 0x200
 80045c6:	22e2      	movs	r2, #226	@ 0xe2
 80045c8:	f04f 0ae0 	mov.w	sl, #224	@ 0xe0
 80045cc:	4f97      	ldr	r7, [pc, #604]	@ (800482c <lcd_init+0x3570>)
 80045ce:	f8cb 9010 	str.w	r9, [fp, #16]
 80045d2:	201d      	movs	r0, #29
 80045d4:	f8cb 8010 	str.w	r8, [fp, #16]
 80045d8:	60fa      	str	r2, [r7, #12]
 80045da:	f8cb 6010 	str.w	r6, [fp, #16]
 80045de:	f8cb 5010 	str.w	r5, [fp, #16]
 80045e2:	f8cb 4010 	str.w	r4, [fp, #16]
 80045e6:	f7fc f9e5 	bl	80009b4 <lcd_wr_xdata>
 80045ea:	2002      	movs	r0, #2
 80045ec:	f7fc f9e2 	bl	80009b4 <lcd_wr_xdata>
 80045f0:	2004      	movs	r0, #4
 80045f2:	f7fc f9df 	bl	80009b4 <lcd_wr_xdata>
 80045f6:	f8cb 9010 	str.w	r9, [fp, #16]
 80045fa:	2001      	movs	r0, #1
 80045fc:	f8cb 8010 	str.w	r8, [fp, #16]
 8004600:	f8c7 a00c 	str.w	sl, [r7, #12]
 8004604:	f8cb 6010 	str.w	r6, [fp, #16]
 8004608:	f8cb 5010 	str.w	r5, [fp, #16]
 800460c:	f8cb 4010 	str.w	r4, [fp, #16]
 8004610:	f7fc f9d0 	bl	80009b4 <lcd_wr_xdata>
 8004614:	200a      	movs	r0, #10
 8004616:	f000 fb13 	bl	8004c40 <HAL_Delay>
 800461a:	f8cb 9010 	str.w	r9, [fp, #16]
 800461e:	f8cb 8010 	str.w	r8, [fp, #16]
 8004622:	f8c7 a00c 	str.w	sl, [r7, #12]
 8004626:	f04f 0a01 	mov.w	sl, #1
 800462a:	f8cb 6010 	str.w	r6, [fp, #16]
 800462e:	2003      	movs	r0, #3
 8004630:	f8cb 5010 	str.w	r5, [fp, #16]
 8004634:	f8cb 4010 	str.w	r4, [fp, #16]
 8004638:	f7fc f9bc 	bl	80009b4 <lcd_wr_xdata>
 800463c:	200c      	movs	r0, #12
 800463e:	f000 faff 	bl	8004c40 <HAL_Delay>
 8004642:	f8cb 9010 	str.w	r9, [fp, #16]
 8004646:	200a      	movs	r0, #10
 8004648:	f8cb 8010 	str.w	r8, [fp, #16]
 800464c:	f8c7 a00c 	str.w	sl, [r7, #12]
 8004650:	f8cb 6010 	str.w	r6, [fp, #16]
 8004654:	f8cb 5010 	str.w	r5, [fp, #16]
 8004658:	f8cb 4010 	str.w	r4, [fp, #16]
 800465c:	f000 faf0 	bl	8004c40 <HAL_Delay>
 8004660:	22e6      	movs	r2, #230	@ 0xe6
 8004662:	f8cb 9010 	str.w	r9, [fp, #16]
 8004666:	202f      	movs	r0, #47	@ 0x2f
 8004668:	f8cb 8010 	str.w	r8, [fp, #16]
 800466c:	60fa      	str	r2, [r7, #12]
 800466e:	f8cb 6010 	str.w	r6, [fp, #16]
 8004672:	f8cb 5010 	str.w	r5, [fp, #16]
 8004676:	f8cb 4010 	str.w	r4, [fp, #16]
 800467a:	f7fc f99b 	bl	80009b4 <lcd_wr_xdata>
 800467e:	20ff      	movs	r0, #255	@ 0xff
 8004680:	f7fc f998 	bl	80009b4 <lcd_wr_xdata>
 8004684:	f7fc f996 	bl	80009b4 <lcd_wr_xdata>
 8004688:	22b0      	movs	r2, #176	@ 0xb0
 800468a:	f8cb 9010 	str.w	r9, [fp, #16]
 800468e:	2020      	movs	r0, #32
 8004690:	f8cb 8010 	str.w	r8, [fp, #16]
 8004694:	60fa      	str	r2, [r7, #12]
 8004696:	f8cb 6010 	str.w	r6, [fp, #16]
 800469a:	f8cb 5010 	str.w	r5, [fp, #16]
 800469e:	f8cb 4010 	str.w	r4, [fp, #16]
 80046a2:	f7fc f987 	bl	80009b4 <lcd_wr_xdata>
 80046a6:	2000      	movs	r0, #0
 80046a8:	f7fc f984 	bl	80009b4 <lcd_wr_xdata>
 80046ac:	2003      	movs	r0, #3
 80046ae:	f7fc f981 	bl	80009b4 <lcd_wr_xdata>
 80046b2:	f240 301f 	movw	r0, #799	@ 0x31f
 80046b6:	f7fc f97d 	bl	80009b4 <lcd_wr_xdata>
 80046ba:	4650      	mov	r0, sl
 80046bc:	f7fc f97a 	bl	80009b4 <lcd_wr_xdata>
 80046c0:	f240 10df 	movw	r0, #479	@ 0x1df
 80046c4:	f7fc f976 	bl	80009b4 <lcd_wr_xdata>
 80046c8:	2000      	movs	r0, #0
 80046ca:	f7fc f973 	bl	80009b4 <lcd_wr_xdata>
 80046ce:	22b4      	movs	r2, #180	@ 0xb4
 80046d0:	f8cb 9010 	str.w	r9, [fp, #16]
 80046d4:	2004      	movs	r0, #4
 80046d6:	f8cb 8010 	str.w	r8, [fp, #16]
 80046da:	60fa      	str	r2, [r7, #12]
 80046dc:	f8cb 6010 	str.w	r6, [fp, #16]
 80046e0:	f8cb 5010 	str.w	r5, [fp, #16]
 80046e4:	f8cb 4010 	str.w	r4, [fp, #16]
 80046e8:	f7fc f964 	bl	80009b4 <lcd_wr_xdata>
 80046ec:	f240 401f 	movw	r0, #1055	@ 0x41f
 80046f0:	f7fc f960 	bl	80009b4 <lcd_wr_xdata>
 80046f4:	2000      	movs	r0, #0
 80046f6:	f7fc f95d 	bl	80009b4 <lcd_wr_xdata>
 80046fa:	202e      	movs	r0, #46	@ 0x2e
 80046fc:	f7fc f95a 	bl	80009b4 <lcd_wr_xdata>
 8004700:	2000      	movs	r0, #0
 8004702:	f7fc f957 	bl	80009b4 <lcd_wr_xdata>
 8004706:	f7fc f955 	bl	80009b4 <lcd_wr_xdata>
 800470a:	f7fc f953 	bl	80009b4 <lcd_wr_xdata>
 800470e:	f7fc f951 	bl	80009b4 <lcd_wr_xdata>
 8004712:	22b6      	movs	r2, #182	@ 0xb6
 8004714:	f8cb 9010 	str.w	r9, [fp, #16]
 8004718:	2002      	movs	r0, #2
 800471a:	f8cb 8010 	str.w	r8, [fp, #16]
 800471e:	60fa      	str	r2, [r7, #12]
 8004720:	f8cb 6010 	str.w	r6, [fp, #16]
 8004724:	f8cb 5010 	str.w	r5, [fp, #16]
 8004728:	f8cb 4010 	str.w	r4, [fp, #16]
 800472c:	f7fc f942 	bl	80009b4 <lcd_wr_xdata>
 8004730:	f44f 7003 	mov.w	r0, #524	@ 0x20c
 8004734:	f7fc f93e 	bl	80009b4 <lcd_wr_xdata>
 8004738:	2000      	movs	r0, #0
 800473a:	f7fc f93b 	bl	80009b4 <lcd_wr_xdata>
 800473e:	2017      	movs	r0, #23
 8004740:	f7fc f938 	bl	80009b4 <lcd_wr_xdata>
 8004744:	2015      	movs	r0, #21
 8004746:	f7fc f935 	bl	80009b4 <lcd_wr_xdata>
 800474a:	2000      	movs	r0, #0
 800474c:	f7fc f932 	bl	80009b4 <lcd_wr_xdata>
 8004750:	f7fc f930 	bl	80009b4 <lcd_wr_xdata>
 8004754:	22f0      	movs	r2, #240	@ 0xf0
 8004756:	f8cb 9010 	str.w	r9, [fp, #16]
 800475a:	2003      	movs	r0, #3
 800475c:	f8cb 8010 	str.w	r8, [fp, #16]
 8004760:	60fa      	str	r2, [r7, #12]
 8004762:	f8cb 6010 	str.w	r6, [fp, #16]
 8004766:	f8cb 5010 	str.w	r5, [fp, #16]
 800476a:	f8cb 4010 	str.w	r4, [fp, #16]
 800476e:	f7fc f921 	bl	80009b4 <lcd_wr_xdata>
 8004772:	2229      	movs	r2, #41	@ 0x29
 8004774:	f8cb 9010 	str.w	r9, [fp, #16]
 8004778:	f8cb 8010 	str.w	r8, [fp, #16]
 800477c:	60fa      	str	r2, [r7, #12]
 800477e:	22d0      	movs	r2, #208	@ 0xd0
 8004780:	f8cb 6010 	str.w	r6, [fp, #16]
 8004784:	2000      	movs	r0, #0
 8004786:	f8cb 5010 	str.w	r5, [fp, #16]
 800478a:	f8cb 4010 	str.w	r4, [fp, #16]
 800478e:	f8cb 9010 	str.w	r9, [fp, #16]
 8004792:	f8cb 8010 	str.w	r8, [fp, #16]
 8004796:	60fa      	str	r2, [r7, #12]
 8004798:	f8cb 6010 	str.w	r6, [fp, #16]
 800479c:	f8cb 5010 	str.w	r5, [fp, #16]
 80047a0:	f8cb 4010 	str.w	r4, [fp, #16]
 80047a4:	f7fc f906 	bl	80009b4 <lcd_wr_xdata>
 80047a8:	22be      	movs	r2, #190	@ 0xbe
 80047aa:	f8cb 9010 	str.w	r9, [fp, #16]
 80047ae:	2005      	movs	r0, #5
 80047b0:	f8cb 8010 	str.w	r8, [fp, #16]
 80047b4:	60fa      	str	r2, [r7, #12]
 80047b6:	f8cb 6010 	str.w	r6, [fp, #16]
 80047ba:	f8cb 5010 	str.w	r5, [fp, #16]
 80047be:	f8cb 4010 	str.w	r4, [fp, #16]
 80047c2:	f7fc f8f7 	bl	80009b4 <lcd_wr_xdata>
 80047c6:	20fe      	movs	r0, #254	@ 0xfe
 80047c8:	f7fc f8f4 	bl	80009b4 <lcd_wr_xdata>
 80047cc:	4650      	mov	r0, sl
 80047ce:	f7fc f8f1 	bl	80009b4 <lcd_wr_xdata>
 80047d2:	2000      	movs	r0, #0
 80047d4:	f7fc f8ee 	bl	80009b4 <lcd_wr_xdata>
 80047d8:	f7fc f8ec 	bl	80009b4 <lcd_wr_xdata>
 80047dc:	f7fc f8ea 	bl	80009b4 <lcd_wr_xdata>
 80047e0:	22b8      	movs	r2, #184	@ 0xb8
 80047e2:	f8cb 9010 	str.w	r9, [fp, #16]
 80047e6:	2003      	movs	r0, #3
 80047e8:	f8cb 8010 	str.w	r8, [fp, #16]
 80047ec:	60fa      	str	r2, [r7, #12]
 80047ee:	f8cb 6010 	str.w	r6, [fp, #16]
 80047f2:	f8cb 5010 	str.w	r5, [fp, #16]
 80047f6:	f8cb 4010 	str.w	r4, [fp, #16]
 80047fa:	f7fc f8db 	bl	80009b4 <lcd_wr_xdata>
 80047fe:	4650      	mov	r0, sl
 8004800:	f7fc f8d8 	bl	80009b4 <lcd_wr_xdata>
 8004804:	22ba      	movs	r2, #186	@ 0xba
 8004806:	f8cb 9010 	str.w	r9, [fp, #16]
 800480a:	f8cb 8010 	str.w	r8, [fp, #16]
 800480e:	60fa      	str	r2, [r7, #12]
 8004810:	f8cb 6010 	str.w	r6, [fp, #16]
 8004814:	f8cb 5010 	str.w	r5, [fp, #16]
 8004818:	f8cb 4010 	str.w	r4, [fp, #16]
 800481c:	f7fc f8ca 	bl	80009b4 <lcd_wr_xdata>
 8004820:	2064      	movs	r0, #100	@ 0x64
 8004822:	f7fc fc31 	bl	8001088 <lcd_ssd_backlight_set>
 8004826:	f7fd b863 	b.w	80018f0 <lcd_init+0x634>
 800482a:	bf00      	nop
 800482c:	40010c00 	.word	0x40010c00

08004830 <lcd_show_char>:
 8004830:	e92d 4ff0 	stmdb	sp!, {r4, r5, r6, r7, r8, r9, sl, fp, lr}
 8004834:	461d      	mov	r5, r3
 8004836:	f015 0607 	ands.w	r6, r5, #7
 800483a:	bf18      	it	ne
 800483c:	2601      	movne	r6, #1
 800483e:	b085      	sub	sp, #20
 8004840:	f89d 3038 	ldrb.w	r3, [sp, #56]	@ 0x38
 8004844:	eb06 06d5 	add.w	r6, r6, r5, lsr #3
 8004848:	9302      	str	r3, [sp, #8]
 800484a:	f8bd 303c 	ldrh.w	r3, [sp, #60]	@ 0x3c
 800484e:	f1a2 0420 	sub.w	r4, r2, #32
 8004852:	9303      	str	r3, [sp, #12]
 8004854:	086b      	lsrs	r3, r5, #1
 8004856:	435e      	muls	r6, r3
 8004858:	2d18      	cmp	r5, #24
 800485a:	4683      	mov	fp, r0
 800485c:	460f      	mov	r7, r1
 800485e:	b2f6      	uxtb	r6, r6
 8004860:	b2e4      	uxtb	r4, r4
 8004862:	d042      	beq.n	80048ea <lcd_show_char+0xba>
 8004864:	d806      	bhi.n	8004874 <lcd_show_char+0x44>
 8004866:	2d0c      	cmp	r5, #12
 8004868:	d00a      	beq.n	8004880 <lcd_show_char+0x50>
 800486a:	2d10      	cmp	r5, #16
 800486c:	d039      	beq.n	80048e2 <lcd_show_char+0xb2>
 800486e:	b005      	add	sp, #20
 8004870:	e8bd 8ff0 	ldmia.w	sp!, {r4, r5, r6, r7, r8, r9, sl, fp, pc}
 8004874:	2d20      	cmp	r5, #32
 8004876:	d1fa      	bne.n	800486e <lcd_show_char+0x3e>
 8004878:	4b23      	ldr	r3, [pc, #140]	@ (8004908 <lcd_show_char+0xd8>)
 800487a:	eb03 1484 	add.w	r4, r3, r4, lsl #6
 800487e:	e002      	b.n	8004886 <lcd_show_char+0x56>
 8004880:	4b22      	ldr	r3, [pc, #136]	@ (800490c <lcd_show_char+0xdc>)
 8004882:	fb05 3404 	mla	r4, r5, r4, r3
 8004886:	46ba      	mov	sl, r7
 8004888:	19a3      	adds	r3, r4, r6
 800488a:	f8df 9084 	ldr.w	r9, [pc, #132]	@ 8004910 <lcd_show_char+0xe0>
 800488e:	9301      	str	r3, [sp, #4]
 8004890:	9b01      	ldr	r3, [sp, #4]
 8004892:	429c      	cmp	r4, r3
 8004894:	d0eb      	beq.n	800486e <lcd_show_char+0x3e>
 8004896:	f10a 0808 	add.w	r8, sl, #8
 800489a:	f814 6b01 	ldrb.w	r6, [r4], #1
 800489e:	fa1f f888 	uxth.w	r8, r8
 80048a2:	0633      	lsls	r3, r6, #24
 80048a4:	d526      	bpl.n	80048f4 <lcd_show_char+0xc4>
 80048a6:	9a03      	ldr	r2, [sp, #12]
 80048a8:	4651      	mov	r1, sl
 80048aa:	4658      	mov	r0, fp
 80048ac:	f7fc fbc4 	bl	8001038 <lcd_draw_point>
 80048b0:	f8b9 2002 	ldrh.w	r2, [r9, #2]
 80048b4:	f10a 0101 	add.w	r1, sl, #1
 80048b8:	fa1f fa81 	uxth.w	sl, r1
 80048bc:	0073      	lsls	r3, r6, #1
 80048be:	4552      	cmp	r2, sl
 80048c0:	b2de      	uxtb	r6, r3
 80048c2:	d9d4      	bls.n	800486e <lcd_show_char+0x3e>
 80048c4:	ebaa 0207 	sub.w	r2, sl, r7
 80048c8:	4295      	cmp	r5, r2
 80048ca:	d119      	bne.n	8004900 <lcd_show_char+0xd0>
 80048cc:	f8b9 3000 	ldrh.w	r3, [r9]
 80048d0:	f10b 0001 	add.w	r0, fp, #1
 80048d4:	fa1f fb80 	uxth.w	fp, r0
 80048d8:	455b      	cmp	r3, fp
 80048da:	d9c8      	bls.n	800486e <lcd_show_char+0x3e>
 80048dc:	46b8      	mov	r8, r7
 80048de:	46c2      	mov	sl, r8
 80048e0:	e7d6      	b.n	8004890 <lcd_show_char+0x60>
 80048e2:	4b0c      	ldr	r3, [pc, #48]	@ (8004914 <lcd_show_char+0xe4>)
 80048e4:	eb03 1404 	add.w	r4, r3, r4, lsl #4
 80048e8:	e7cd      	b.n	8004886 <lcd_show_char+0x56>
 80048ea:	2224      	movs	r2, #36	@ 0x24
 80048ec:	4b0a      	ldr	r3, [pc, #40]	@ (8004918 <lcd_show_char+0xe8>)
 80048ee:	fb02 3404 	mla	r4, r2, r4, r3
 80048f2:	e7c8      	b.n	8004886 <lcd_show_char+0x56>
 80048f4:	9b02      	ldr	r3, [sp, #8]
 80048f6:	2b00      	cmp	r3, #0
 80048f8:	d1da      	bne.n	80048b0 <lcd_show_char+0x80>
 80048fa:	4b08      	ldr	r3, [pc, #32]	@ (800491c <lcd_show_char+0xec>)
 80048fc:	681a      	ldr	r2, [r3, #0]
 80048fe:	e7d3      	b.n	80048a8 <lcd_show_char+0x78>
 8004900:	45c2      	cmp	sl, r8
 8004902:	d1ce      	bne.n	80048a2 <lcd_show_char+0x72>
 8004904:	e7eb      	b.n	80048de <lcd_show_char+0xae>
 8004906:	bf00      	nop
 8004908:	08005464 	.word	0x08005464
 800490c:	08007f70 	.word	0x08007f70
 8004910:	2000002c 	.word	0x2000002c
 8004914:	08007980 	.word	0x08007980
 8004918:	08006c24 	.word	0x08006c24
 800491c:	20000000 	.word	0x20000000

08004920 <lcd_show_string>:
 8004920:	e92d 4ff0 	stmdb	sp!, {r4, r5, r6, r7, r8, r9, sl, fp, lr}
 8004924:	461e      	mov	r6, r3
 8004926:	4604      	mov	r4, r0
 8004928:	f04f 0b00 	mov.w	fp, #0
 800492c:	b085      	sub	sp, #20
 800492e:	f89d 3038 	ldrb.w	r3, [sp, #56]	@ 0x38
 8004932:	9f0f      	ldr	r7, [sp, #60]	@ 0x3c
 8004934:	4402      	add	r2, r0
 8004936:	440e      	add	r6, r1
 8004938:	f8bd 9040 	ldrh.w	r9, [sp, #64]	@ 0x40
 800493c:	b295      	uxth	r5, r2
 800493e:	b2b6      	uxth	r6, r6
 8004940:	ea4f 0853 	mov.w	r8, r3, lsr #1
 8004944:	3f01      	subs	r7, #1
 8004946:	fa5f fa80 	uxtb.w	sl, r0
 800494a:	f817 2f01 	ldrb.w	r2, [r7, #1]!
 800494e:	f1a2 0020 	sub.w	r0, r2, #32
 8004952:	285e      	cmp	r0, #94	@ 0x5e
 8004954:	d902      	bls.n	800495c <lcd_show_string+0x3c>
 8004956:	b005      	add	sp, #20
 8004958:	e8bd 8ff0 	ldmia.w	sp!, {r4, r5, r6, r7, r8, r9, sl, fp, pc}
 800495c:	42ac      	cmp	r4, r5
 800495e:	bf22      	ittt	cs
 8004960:	18c9      	addcs	r1, r1, r3
 8004962:	b289      	uxthcs	r1, r1
 8004964:	4654      	movcs	r4, sl
 8004966:	42b1      	cmp	r1, r6
 8004968:	d2f5      	bcs.n	8004956 <lcd_show_string+0x36>
 800496a:	4620      	mov	r0, r4
 800496c:	e9cd b900 	strd	fp, r9, [sp]
 8004970:	4444      	add	r4, r8
 8004972:	e9cd 1302 	strd	r1, r3, [sp, #8]
 8004976:	b2a4      	uxth	r4, r4
 8004978:	f7ff ff5a 	bl	8004830 <lcd_show_char>
 800497c:	e9dd 1302 	ldrd	r1, r3, [sp, #8]
 8004980:	e7e3      	b.n	800494a <lcd_show_string+0x2a>

08004982 <SystemClock_Config>:
 8004982:	b510      	push	{r4, lr}
 8004984:	b090      	sub	sp, #64	@ 0x40
 8004986:	2214      	movs	r2, #20
 8004988:	2100      	movs	r1, #0
 800498a:	a808      	add	r0, sp, #32
 800498c:	f000 fd32 	bl	80053f4 <memset>
 8004990:	2214      	movs	r2, #20
 8004992:	2100      	movs	r1, #0
 8004994:	a801      	add	r0, sp, #4
 8004996:	f000 fd2d 	bl	80053f4 <memset>
 800499a:	2402      	movs	r4, #2
 800499c:	f44f 3380 	mov.w	r3, #65536	@ 0x10000
 80049a0:	2201      	movs	r2, #1
 80049a2:	e9cd 430d 	strd	r4, r3, [sp, #52]	@ 0x34
 80049a6:	e9cd 2306 	strd	r2, r3, [sp, #24]
 80049aa:	f44f 13e0 	mov.w	r3, #1835008	@ 0x1c0000
 80049ae:	a806      	add	r0, sp, #24
 80049b0:	920a      	str	r2, [sp, #40]	@ 0x28
 80049b2:	930f      	str	r3, [sp, #60]	@ 0x3c
 80049b4:	f000 fac0 	bl	8004f38 <HAL_RCC_OscConfig>
 80049b8:	b108      	cbz	r0, 80049be <SystemClock_Config+0x3c>
 80049ba:	b672      	cpsid	i
 80049bc:	e7fe      	b.n	80049bc <SystemClock_Config+0x3a>
 80049be:	230f      	movs	r3, #15
 80049c0:	e9cd 3401 	strd	r3, r4, [sp, #4]
 80049c4:	f44f 6380 	mov.w	r3, #1024	@ 0x400
 80049c8:	9003      	str	r0, [sp, #12]
 80049ca:	e9cd 3004 	strd	r3, r0, [sp, #16]
 80049ce:	4621      	mov	r1, r4
 80049d0:	a801      	add	r0, sp, #4
 80049d2:	f000 fc73 	bl	80052bc <HAL_RCC_ClockConfig>
 80049d6:	b108      	cbz	r0, 80049dc <SystemClock_Config+0x5a>
 80049d8:	b672      	cpsid	i
 80049da:	e7fe      	b.n	80049da <SystemClock_Config+0x58>
 80049dc:	b010      	add	sp, #64	@ 0x40
 80049de:	bd10      	pop	{r4, pc}

080049e0 <main>:
 80049e0:	b508      	push	{r3, lr}
 80049e2:	f000 f909 	bl	8004bf8 <HAL_Init>
 80049e6:	f7ff ffcc 	bl	8004982 <SystemClock_Config>
 80049ea:	f7fc fc67 	bl	80012bc <lcd_init>
 80049ee:	f7fb ff21 	bl	8000834 <MX_GPIO_Init>
 80049f2:	e7fe      	b.n	80049f2 <main+0x12>

080049f4 <HAL_MspInit>:
 80049f4:	4b10      	ldr	r3, [pc, #64]	@ (8004a38 <HAL_MspInit+0x44>)
 80049f6:	b507      	push	{r0, r1, r2, lr}
 80049f8:	699a      	ldr	r2, [r3, #24]
 80049fa:	2005      	movs	r0, #5
 80049fc:	f042 0201 	orr.w	r2, r2, #1
 8004a00:	619a      	str	r2, [r3, #24]
 8004a02:	699a      	ldr	r2, [r3, #24]
 8004a04:	f002 0201 	and.w	r2, r2, #1
 8004a08:	9200      	str	r2, [sp, #0]
 8004a0a:	9a00      	ldr	r2, [sp, #0]
 8004a0c:	69da      	ldr	r2, [r3, #28]
 8004a0e:	f042 5280 	orr.w	r2, r2, #268435456	@ 0x10000000
 8004a12:	61da      	str	r2, [r3, #28]
 8004a14:	69db      	ldr	r3, [r3, #28]
 8004a16:	f003 5380 	and.w	r3, r3, #268435456	@ 0x10000000
 8004a1a:	9301      	str	r3, [sp, #4]
 8004a1c:	9b01      	ldr	r3, [sp, #4]
 8004a1e:	f000 f921 	bl	8004c64 <HAL_NVIC_SetPriorityGrouping>
 8004a22:	4a06      	ldr	r2, [pc, #24]	@ (8004a3c <HAL_MspInit+0x48>)
 8004a24:	6853      	ldr	r3, [r2, #4]
 8004a26:	f023 63e0 	bic.w	r3, r3, #117440512	@ 0x7000000
 8004a2a:	f043 7300 	orr.w	r3, r3, #33554432	@ 0x2000000
 8004a2e:	6053      	str	r3, [r2, #4]
 8004a30:	b003      	add	sp, #12
 8004a32:	f85d fb04 	ldr.w	pc, [sp], #4
 8004a36:	bf00      	nop
 8004a38:	40021000 	.word	0x40021000
 8004a3c:	40010000 	.word	0x40010000

08004a40 <NMI_Handler>:
 8004a40:	e7fe      	b.n	8004a40 <NMI_Handler>

08004a42 <HardFault_Handler>:
 8004a42:	e7fe      	b.n	8004a42 <HardFault_Handler>

08004a44 <MemManage_Handler>:
 8004a44:	e7fe      	b.n	8004a44 <MemManage_Handler>

08004a46 <BusFault_Handler>:
 8004a46:	e7fe      	b.n	8004a46 <BusFault_Handler>

08004a48 <UsageFault_Handler>:
 8004a48:	e7fe      	b.n	8004a48 <UsageFault_Handler>

08004a4a <SVC_Handler>:
 8004a4a:	4770      	bx	lr

08004a4c <DebugMon_Handler>:
 8004a4c:	4770      	bx	lr

08004a4e <PendSV_Handler>:
 8004a4e:	4770      	bx	lr

08004a50 <SysTick_Handler>:
 8004a50:	f000 b8e4 	b.w	8004c1c <HAL_IncTick>

08004a54 <EXTI0_IRQHandler>:
 8004a54:	2001      	movs	r0, #1
 8004a56:	f000 ba63 	b.w	8004f20 <HAL_GPIO_EXTI_IRQHandler>

08004a5a <EXTI9_5_IRQHandler>:
 8004a5a:	2020      	movs	r0, #32
 8004a5c:	f000 ba60 	b.w	8004f20 <HAL_GPIO_EXTI_IRQHandler>

08004a60 <EXTI15_10_IRQHandler>:
 8004a60:	f44f 4000 	mov.w	r0, #32768	@ 0x8000
 8004a64:	f000 ba5c 	b.w	8004f20 <HAL_GPIO_EXTI_IRQHandler>

08004a68 <HAL_GPIO_EXTI_Callback>:
 8004a68:	b51f      	push	{r0, r1, r2, r3, r4, lr}
 8004a6a:	4604      	mov	r4, r0
 8004a6c:	2064      	movs	r0, #100	@ 0x64
 8004a6e:	f000 f8e7 	bl	8004c40 <HAL_Delay>
 8004a72:	2c20      	cmp	r4, #32
 8004a74:	d024      	beq.n	8004ac0 <HAL_GPIO_EXTI_Callback+0x58>
 8004a76:	f5b4 4f00 	cmp.w	r4, #32768	@ 0x8000
 8004a7a:	d045      	beq.n	8004b08 <HAL_GPIO_EXTI_Callback+0xa0>
 8004a7c:	2c01      	cmp	r4, #1
 8004a7e:	d15f      	bne.n	8004b40 <HAL_GPIO_EXTI_Callback+0xd8>
 8004a80:	f64f 70ff 	movw	r0, #65535	@ 0xffff
 8004a84:	f7fc fbe8 	bl	8001258 <lcd_clear>
 8004a88:	f64f 72ff 	movw	r2, #65535	@ 0xffff
 8004a8c:	4b2d      	ldr	r3, [pc, #180]	@ (8004b44 <HAL_GPIO_EXTI_Callback+0xdc>)
 8004a8e:	2128      	movs	r1, #40	@ 0x28
 8004a90:	601a      	str	r2, [r3, #0]
 8004a92:	f44f 4378 	mov.w	r3, #63488	@ 0xf800
 8004a96:	9302      	str	r3, [sp, #8]
 8004a98:	4b2b      	ldr	r3, [pc, #172]	@ (8004b48 <HAL_GPIO_EXTI_Callback+0xe0>)
 8004a9a:	22c8      	movs	r2, #200	@ 0xc8
 8004a9c:	9301      	str	r3, [sp, #4]
 8004a9e:	2318      	movs	r3, #24
 8004aa0:	201e      	movs	r0, #30
 8004aa2:	9300      	str	r3, [sp, #0]
 8004aa4:	f7ff ff3c 	bl	8004920 <lcd_show_string>
 8004aa8:	4621      	mov	r1, r4
 8004aaa:	4828      	ldr	r0, [pc, #160]	@ (8004b4c <HAL_GPIO_EXTI_Callback+0xe4>)
 8004aac:	f000 fa24 	bl	8004ef8 <HAL_GPIO_ReadPin>
 8004ab0:	2801      	cmp	r0, #1
 8004ab2:	d145      	bne.n	8004b40 <HAL_GPIO_EXTI_Callback+0xd8>
 8004ab4:	f44f 7180 	mov.w	r1, #256	@ 0x100
 8004ab8:	4824      	ldr	r0, [pc, #144]	@ (8004b4c <HAL_GPIO_EXTI_Callback+0xe4>)
 8004aba:	f000 fa28 	bl	8004f0e <HAL_GPIO_TogglePin>
 8004abe:	e03c      	b.n	8004b3a <HAL_GPIO_EXTI_Callback+0xd2>
 8004ac0:	f64f 70ff 	movw	r0, #65535	@ 0xffff
 8004ac4:	f7fc fbc8 	bl	8001258 <lcd_clear>
 8004ac8:	f64f 72ff 	movw	r2, #65535	@ 0xffff
 8004acc:	4b1d      	ldr	r3, [pc, #116]	@ (8004b44 <HAL_GPIO_EXTI_Callback+0xdc>)
 8004ace:	2128      	movs	r1, #40	@ 0x28
 8004ad0:	601a      	str	r2, [r3, #0]
 8004ad2:	f44f 4378 	mov.w	r3, #63488	@ 0xf800
 8004ad6:	9302      	str	r3, [sp, #8]
 8004ad8:	4b1d      	ldr	r3, [pc, #116]	@ (8004b50 <HAL_GPIO_EXTI_Callback+0xe8>)
 8004ada:	201e      	movs	r0, #30
 8004adc:	9301      	str	r3, [sp, #4]
 8004ade:	2318      	movs	r3, #24
 8004ae0:	22c8      	movs	r2, #200	@ 0xc8
 8004ae2:	9300      	str	r3, [sp, #0]
 8004ae4:	f7ff ff1c 	bl	8004920 <lcd_show_string>
 8004ae8:	4621      	mov	r1, r4
 8004aea:	481a      	ldr	r0, [pc, #104]	@ (8004b54 <HAL_GPIO_EXTI_Callback+0xec>)
 8004aec:	f000 fa04 	bl	8004ef8 <HAL_GPIO_ReadPin>
 8004af0:	bb30      	cbnz	r0, 8004b40 <HAL_GPIO_EXTI_Callback+0xd8>
 8004af2:	f44f 7180 	mov.w	r1, #256	@ 0x100
 8004af6:	f100 4080 	add.w	r0, r0, #1073741824	@ 0x40000000
 8004afa:	f500 3084 	add.w	r0, r0, #67584	@ 0x10800
 8004afe:	b004      	add	sp, #16
 8004b00:	e8bd 4010 	ldmia.w	sp!, {r4, lr}
 8004b04:	f000 ba03 	b.w	8004f0e <HAL_GPIO_TogglePin>
 8004b08:	f64f 70ff 	movw	r0, #65535	@ 0xffff
 8004b0c:	f7fc fba4 	bl	8001258 <lcd_clear>
 8004b10:	f64f 72ff 	movw	r2, #65535	@ 0xffff
 8004b14:	4b0b      	ldr	r3, [pc, #44]	@ (8004b44 <HAL_GPIO_EXTI_Callback+0xdc>)
 8004b16:	2128      	movs	r1, #40	@ 0x28
 8004b18:	601a      	str	r2, [r3, #0]
 8004b1a:	f44f 4378 	mov.w	r3, #63488	@ 0xf800
 8004b1e:	9302      	str	r3, [sp, #8]
 8004b20:	4b0d      	ldr	r3, [pc, #52]	@ (8004b58 <HAL_GPIO_EXTI_Callback+0xf0>)
 8004b22:	201e      	movs	r0, #30
 8004b24:	9301      	str	r3, [sp, #4]
 8004b26:	2318      	movs	r3, #24
 8004b28:	22c8      	movs	r2, #200	@ 0xc8
 8004b2a:	9300      	str	r3, [sp, #0]
 8004b2c:	f7ff fef8 	bl	8004920 <lcd_show_string>
 8004b30:	4621      	mov	r1, r4
 8004b32:	4806      	ldr	r0, [pc, #24]	@ (8004b4c <HAL_GPIO_EXTI_Callback+0xe4>)
 8004b34:	f000 f9e0 	bl	8004ef8 <HAL_GPIO_ReadPin>
 8004b38:	b910      	cbnz	r0, 8004b40 <HAL_GPIO_EXTI_Callback+0xd8>
 8004b3a:	2104      	movs	r1, #4
 8004b3c:	4807      	ldr	r0, [pc, #28]	@ (8004b5c <HAL_GPIO_EXTI_Callback+0xf4>)
 8004b3e:	e7de      	b.n	8004afe <HAL_GPIO_EXTI_Callback+0x96>
 8004b40:	b004      	add	sp, #16
 8004b42:	bd10      	pop	{r4, pc}
 8004b44:	20000000 	.word	0x20000000
 8004b48:	08008404 	.word	0x08008404
 8004b4c:	40010800 	.word	0x40010800
 8004b50:	080083e4 	.word	0x080083e4
 8004b54:	40011000 	.word	0x40011000
 8004b58:	080083f4 	.word	0x080083f4
 8004b5c:	40011400 	.word	0x40011400

08004b60 <SystemInit>:
 8004b60:	4770      	bx	lr
	...

08004b64 <Reset_Handler>:
 8004b64:	f7ff fffc 	bl	8004b60 <SystemInit>
 8004b68:	480b      	ldr	r0, [pc, #44]	@ (8004b98 <LoopFillZerobss+0xe>)
 8004b6a:	490c      	ldr	r1, [pc, #48]	@ (8004b9c <LoopFillZerobss+0x12>)
 8004b6c:	4a0c      	ldr	r2, [pc, #48]	@ (8004ba0 <LoopFillZerobss+0x16>)
 8004b6e:	2300      	movs	r3, #0
 8004b70:	e002      	b.n	8004b78 <LoopCopyDataInit>

08004b72 <CopyDataInit>:
 8004b72:	58d4      	ldr	r4, [r2, r3]
 8004b74:	50c4      	str	r4, [r0, r3]
 8004b76:	3304      	adds	r3, #4

08004b78 <LoopCopyDataInit>:
 8004b78:	18c4      	adds	r4, r0, r3
 8004b7a:	428c      	cmp	r4, r1
 8004b7c:	d3f9      	bcc.n	8004b72 <CopyDataInit>
 8004b7e:	4a09      	ldr	r2, [pc, #36]	@ (8004ba4 <LoopFillZerobss+0x1a>)
 8004b80:	4c09      	ldr	r4, [pc, #36]	@ (8004ba8 <LoopFillZerobss+0x1e>)
 8004b82:	2300      	movs	r3, #0
 8004b84:	e001      	b.n	8004b8a <LoopFillZerobss>

08004b86 <FillZerobss>:
 8004b86:	6013      	str	r3, [r2, #0]
 8004b88:	3204      	adds	r2, #4

08004b8a <LoopFillZerobss>:
 8004b8a:	42a2      	cmp	r2, r4
 8004b8c:	d3fb      	bcc.n	8004b86 <FillZerobss>
 8004b8e:	f000 fc39 	bl	8005404 <__libc_init_array>
 8004b92:	f7ff ff25 	bl	80049e0 <main>
 8004b96:	4770      	bx	lr
 8004b98:	20000000 	.word	0x20000000
 8004b9c:	20000010 	.word	0x20000010
 8004ba0:	08008444 	.word	0x08008444
 8004ba4:	20000010 	.word	0x20000010
 8004ba8:	20000040 	.word	0x20000040

08004bac <ADC1_2_IRQHandler>:
 8004bac:	e7fe      	b.n	8004bac <ADC1_2_IRQHandler>
	...

08004bb0 <HAL_InitTick>:
 8004bb0:	b538      	push	{r3, r4, r5, lr}
 8004bb2:	4b0e      	ldr	r3, [pc, #56]	@ (8004bec <HAL_InitTick+0x3c>)
 8004bb4:	4605      	mov	r5, r0
 8004bb6:	781a      	ldrb	r2, [r3, #0]
 8004bb8:	f44f 737a 	mov.w	r3, #1000	@ 0x3e8
 8004bbc:	fbb3 f3f2 	udiv	r3, r3, r2
 8004bc0:	4a0b      	ldr	r2, [pc, #44]	@ (8004bf0 <HAL_InitTick+0x40>)
 8004bc2:	6810      	ldr	r0, [r2, #0]
 8004bc4:	fbb0 f0f3 	udiv	r0, r0, r3
 8004bc8:	f000 f89c 	bl	8004d04 <HAL_SYSTICK_Config>
 8004bcc:	4604      	mov	r4, r0
 8004bce:	b958      	cbnz	r0, 8004be8 <HAL_InitTick+0x38>
 8004bd0:	2d0f      	cmp	r5, #15
 8004bd2:	d809      	bhi.n	8004be8 <HAL_InitTick+0x38>
 8004bd4:	4602      	mov	r2, r0
 8004bd6:	4629      	mov	r1, r5
 8004bd8:	f04f 30ff 	mov.w	r0, #4294967295
 8004bdc:	f000 f854 	bl	8004c88 <HAL_NVIC_SetPriority>
 8004be0:	4620      	mov	r0, r4
 8004be2:	4b04      	ldr	r3, [pc, #16]	@ (8004bf4 <HAL_InitTick+0x44>)
 8004be4:	601d      	str	r5, [r3, #0]
 8004be6:	bd38      	pop	{r3, r4, r5, pc}
 8004be8:	2001      	movs	r0, #1
 8004bea:	e7fc      	b.n	8004be6 <HAL_InitTick+0x36>
 8004bec:	20000008 	.word	0x20000008
 8004bf0:	20000004 	.word	0x20000004
 8004bf4:	2000000c 	.word	0x2000000c

08004bf8 <HAL_Init>:
 8004bf8:	4a07      	ldr	r2, [pc, #28]	@ (8004c18 <HAL_Init+0x20>)
 8004bfa:	b508      	push	{r3, lr}
 8004bfc:	6813      	ldr	r3, [r2, #0]
 8004bfe:	2003      	movs	r0, #3
 8004c00:	f043 0310 	orr.w	r3, r3, #16
 8004c04:	6013      	str	r3, [r2, #0]
 8004c06:	f000 f82d 	bl	8004c64 <HAL_NVIC_SetPriorityGrouping>
 8004c0a:	2000      	movs	r0, #0
 8004c0c:	f7ff ffd0 	bl	8004bb0 <HAL_InitTick>
 8004c10:	f7ff fef0 	bl	80049f4 <HAL_MspInit>
 8004c14:	2000      	movs	r0, #0
 8004c16:	bd08      	pop	{r3, pc}
 8004c18:	40022000 	.word	0x40022000

08004c1c <HAL_IncTick>:
 8004c1c:	4a03      	ldr	r2, [pc, #12]	@ (8004c2c <HAL_IncTick+0x10>)
 8004c1e:	4b04      	ldr	r3, [pc, #16]	@ (8004c30 <HAL_IncTick+0x14>)
 8004c20:	6811      	ldr	r1, [r2, #0]
 8004c22:	781b      	ldrb	r3, [r3, #0]
 8004c24:	440b      	add	r3, r1
 8004c26:	6013      	str	r3, [r2, #0]
 8004c28:	4770      	bx	lr
 8004c2a:	bf00      	nop
 8004c2c:	2000003c 	.word	0x2000003c
 8004c30:	20000008 	.word	0x20000008

08004c34 <HAL_GetTick>:
 8004c34:	4b01      	ldr	r3, [pc, #4]	@ (8004c3c <HAL_GetTick+0x8>)
 8004c36:	6818      	ldr	r0, [r3, #0]
 8004c38:	4770      	bx	lr
 8004c3a:	bf00      	nop
 8004c3c:	2000003c 	.word	0x2000003c

08004c40 <HAL_Delay>:
 8004c40:	b538      	push	{r3, r4, r5, lr}
 8004c42:	4604      	mov	r4, r0
 8004c44:	f7ff fff6 	bl	8004c34 <HAL_GetTick>
 8004c48:	4605      	mov	r5, r0
 8004c4a:	1c63      	adds	r3, r4, #1
 8004c4c:	bf1e      	ittt	ne
 8004c4e:	4b04      	ldrne	r3, [pc, #16]	@ (8004c60 <HAL_Delay+0x20>)
 8004c50:	781b      	ldrbne	r3, [r3, #0]
 8004c52:	18e4      	addne	r4, r4, r3
 8004c54:	f7ff ffee 	bl	8004c34 <HAL_GetTick>
 8004c58:	1b43      	subs	r3, r0, r5
 8004c5a:	42a3      	cmp	r3, r4
 8004c5c:	d3fa      	bcc.n	8004c54 <HAL_Delay+0x14>
 8004c5e:	bd38      	pop	{r3, r4, r5, pc}
 8004c60:	20000008 	.word	0x20000008

08004c64 <HAL_NVIC_SetPriorityGrouping>:
 8004c64:	4907      	ldr	r1, [pc, #28]	@ (8004c84 <HAL_NVIC_SetPriorityGrouping+0x20>)
 8004c66:	0203      	lsls	r3, r0, #8
 8004c68:	68ca      	ldr	r2, [r1, #12]
 8004c6a:	f403 63e0 	and.w	r3, r3, #1792	@ 0x700
 8004c6e:	f422 62e0 	bic.w	r2, r2, #1792	@ 0x700
 8004c72:	0412      	lsls	r2, r2, #16
 8004c74:	0c12      	lsrs	r2, r2, #16
 8004c76:	4313      	orrs	r3, r2
 8004c78:	f043 63bf 	orr.w	r3, r3, #100139008	@ 0x5f80000
 8004c7c:	f443 3300 	orr.w	r3, r3, #131072	@ 0x20000
 8004c80:	60cb      	str	r3, [r1, #12]
 8004c82:	4770      	bx	lr
 8004c84:	e000ed00 	.word	0xe000ed00

08004c88 <HAL_NVIC_SetPriority>:
 8004c88:	4b15      	ldr	r3, [pc, #84]	@ (8004ce0 <HAL_NVIC_SetPriority+0x58>)
 8004c8a:	b530      	push	{r4, r5, lr}
 8004c8c:	68dc      	ldr	r4, [r3, #12]
 8004c8e:	f3c4 2402 	ubfx	r4, r4, #8, #3
 8004c92:	f1c4 0307 	rsb	r3, r4, #7
 8004c96:	1d25      	adds	r5, r4, #4
 8004c98:	2b04      	cmp	r3, #4
 8004c9a:	bf28      	it	cs
 8004c9c:	2304      	movcs	r3, #4
 8004c9e:	2d06      	cmp	r5, #6
 8004ca0:	f04f 35ff 	mov.w	r5, #4294967295
 8004ca4:	bf94      	ite	ls
 8004ca6:	2400      	movls	r4, #0
 8004ca8:	3c03      	subhi	r4, #3
 8004caa:	fa05 f303 	lsl.w	r3, r5, r3
 8004cae:	ea21 0303 	bic.w	r3, r1, r3
 8004cb2:	40a5      	lsls	r5, r4
 8004cb4:	ea22 0205 	bic.w	r2, r2, r5
 8004cb8:	40a3      	lsls	r3, r4
 8004cba:	2800      	cmp	r0, #0
 8004cbc:	ea43 0302 	orr.w	r3, r3, r2
 8004cc0:	bfac      	ite	ge
 8004cc2:	f100 4060 	addge.w	r0, r0, #3758096384	@ 0xe0000000
 8004cc6:	4a07      	ldrlt	r2, [pc, #28]	@ (8004ce4 <HAL_NVIC_SetPriority+0x5c>)
 8004cc8:	ea4f 1303 	mov.w	r3, r3, lsl #4
 8004ccc:	b2db      	uxtb	r3, r3
 8004cce:	bfab      	itete	ge
 8004cd0:	f500 4061 	addge.w	r0, r0, #57600	@ 0xe100
 8004cd4:	f000 000f 	andlt.w	r0, r0, #15
 8004cd8:	f880 3300 	strbge.w	r3, [r0, #768]	@ 0x300
 8004cdc:	5413      	strblt	r3, [r2, r0]
 8004cde:	bd30      	pop	{r4, r5, pc}
 8004ce0:	e000ed00 	.word	0xe000ed00
 8004ce4:	e000ed14 	.word	0xe000ed14

08004ce8 <HAL_NVIC_EnableIRQ>:
 8004ce8:	2800      	cmp	r0, #0
 8004cea:	db07      	blt.n	8004cfc <HAL_NVIC_EnableIRQ+0x14>
 8004cec:	2301      	movs	r3, #1
 8004cee:	0941      	lsrs	r1, r0, #5
 8004cf0:	4a03      	ldr	r2, [pc, #12]	@ (8004d00 <HAL_NVIC_EnableIRQ+0x18>)
 8004cf2:	f000 001f 	and.w	r0, r0, #31
 8004cf6:	4083      	lsls	r3, r0
 8004cf8:	f842 3021 	str.w	r3, [r2, r1, lsl #2]
 8004cfc:	4770      	bx	lr
 8004cfe:	bf00      	nop
 8004d00:	e000e100 	.word	0xe000e100

08004d04 <HAL_SYSTICK_Config>:
 8004d04:	3801      	subs	r0, #1
 8004d06:	f1b0 7f80 	cmp.w	r0, #16777216	@ 0x1000000
 8004d0a:	d20b      	bcs.n	8004d24 <HAL_SYSTICK_Config+0x20>
 8004d0c:	f04f 23e0 	mov.w	r3, #3758153728	@ 0xe000e000
 8004d10:	21f0      	movs	r1, #240	@ 0xf0
 8004d12:	4a05      	ldr	r2, [pc, #20]	@ (8004d28 <HAL_SYSTICK_Config+0x24>)
 8004d14:	6158      	str	r0, [r3, #20]
 8004d16:	f882 1023 	strb.w	r1, [r2, #35]	@ 0x23
 8004d1a:	2000      	movs	r0, #0
 8004d1c:	2207      	movs	r2, #7
 8004d1e:	6198      	str	r0, [r3, #24]
 8004d20:	611a      	str	r2, [r3, #16]
 8004d22:	4770      	bx	lr
 8004d24:	2001      	movs	r0, #1
 8004d26:	4770      	bx	lr
 8004d28:	e000ed00 	.word	0xe000ed00

08004d2c <HAL_GPIO_Init>:
 8004d2c:	e92d 4ff7 	stmdb	sp!, {r0, r1, r2, r4, r5, r6, r7, r8, r9, sl, fp, lr}
 8004d30:	2400      	movs	r4, #0
 8004d32:	4626      	mov	r6, r4
 8004d34:	f8df c1a4 	ldr.w	ip, [pc, #420]	@ 8004edc <HAL_GPIO_Init+0x1b0>
 8004d38:	4b69      	ldr	r3, [pc, #420]	@ (8004ee0 <HAL_GPIO_Init+0x1b4>)
 8004d3a:	f8df e1a8 	ldr.w	lr, [pc, #424]	@ 8004ee4 <HAL_GPIO_Init+0x1b8>
 8004d3e:	f8df 81a8 	ldr.w	r8, [pc, #424]	@ 8004ee8 <HAL_GPIO_Init+0x1bc>
 8004d42:	680a      	ldr	r2, [r1, #0]
 8004d44:	fa32 f506 	lsrs.w	r5, r2, r6
 8004d48:	d102      	bne.n	8004d50 <HAL_GPIO_Init+0x24>
 8004d4a:	b003      	add	sp, #12
 8004d4c:	e8bd 8ff0 	ldmia.w	sp!, {r4, r5, r6, r7, r8, r9, sl, fp, pc}
 8004d50:	2701      	movs	r7, #1
 8004d52:	40b7      	lsls	r7, r6
 8004d54:	ea02 0507 	and.w	r5, r2, r7
 8004d58:	ea37 0202 	bics.w	r2, r7, r2
 8004d5c:	f040 8083 	bne.w	8004e66 <HAL_GPIO_Init+0x13a>
 8004d60:	684a      	ldr	r2, [r1, #4]
 8004d62:	2a03      	cmp	r2, #3
 8004d64:	d807      	bhi.n	8004d76 <HAL_GPIO_Init+0x4a>
 8004d66:	3a01      	subs	r2, #1
 8004d68:	2a02      	cmp	r2, #2
 8004d6a:	f200 808c 	bhi.w	8004e86 <HAL_GPIO_Init+0x15a>
 8004d6e:	e8df f002 	tbb	[pc, r2]
 8004d72:	a09b      	.short	0xa09b
 8004d74:	a6          	.byte	0xa6
 8004d75:	00          	.byte	0x00
 8004d76:	2a12      	cmp	r2, #18
 8004d78:	f000 809e 	beq.w	8004eb8 <HAL_GPIO_Init+0x18c>
 8004d7c:	d875      	bhi.n	8004e6a <HAL_GPIO_Init+0x13e>
 8004d7e:	2a11      	cmp	r2, #17
 8004d80:	f000 8094 	beq.w	8004eac <HAL_GPIO_Init+0x180>
 8004d84:	2dff      	cmp	r5, #255	@ 0xff
 8004d86:	bf98      	it	ls
 8004d88:	4681      	movls	r9, r0
 8004d8a:	f04f 0b0f 	mov.w	fp, #15
 8004d8e:	bf88      	it	hi
 8004d90:	f100 0904 	addhi.w	r9, r0, #4
 8004d94:	ea4f 0286 	mov.w	r2, r6, lsl #2
 8004d98:	f8d9 7000 	ldr.w	r7, [r9]
 8004d9c:	bf88      	it	hi
 8004d9e:	3a20      	subhi	r2, #32
 8004da0:	fa0b fa02 	lsl.w	sl, fp, r2
 8004da4:	ea27 070a 	bic.w	r7, r7, sl
 8004da8:	fa04 f202 	lsl.w	r2, r4, r2
 8004dac:	4317      	orrs	r7, r2
 8004dae:	f8c9 7000 	str.w	r7, [r9]
 8004db2:	f8d1 9004 	ldr.w	r9, [r1, #4]
 8004db6:	f019 5f80 	tst.w	r9, #268435456	@ 0x10000000
 8004dba:	d054      	beq.n	8004e66 <HAL_GPIO_Init+0x13a>
 8004dbc:	f8dc 2018 	ldr.w	r2, [ip, #24]
 8004dc0:	f026 0703 	bic.w	r7, r6, #3
 8004dc4:	f042 0201 	orr.w	r2, r2, #1
 8004dc8:	f8cc 2018 	str.w	r2, [ip, #24]
 8004dcc:	f8dc 2018 	ldr.w	r2, [ip, #24]
 8004dd0:	f107 4780 	add.w	r7, r7, #1073741824	@ 0x40000000
 8004dd4:	f002 0201 	and.w	r2, r2, #1
 8004dd8:	9201      	str	r2, [sp, #4]
 8004dda:	f507 3780 	add.w	r7, r7, #65536	@ 0x10000
 8004dde:	f006 0a03 	and.w	sl, r6, #3
 8004de2:	9a01      	ldr	r2, [sp, #4]
 8004de4:	ea4f 0a8a 	mov.w	sl, sl, lsl #2
 8004de8:	68ba      	ldr	r2, [r7, #8]
 8004dea:	fa0b fb0a 	lsl.w	fp, fp, sl
 8004dee:	ea22 0b0b 	bic.w	fp, r2, fp
 8004df2:	4a3e      	ldr	r2, [pc, #248]	@ (8004eec <HAL_GPIO_Init+0x1c0>)
 8004df4:	4290      	cmp	r0, r2
 8004df6:	d066      	beq.n	8004ec6 <HAL_GPIO_Init+0x19a>
 8004df8:	f502 6280 	add.w	r2, r2, #1024	@ 0x400
 8004dfc:	4290      	cmp	r0, r2
 8004dfe:	d064      	beq.n	8004eca <HAL_GPIO_Init+0x19e>
 8004e00:	f502 6280 	add.w	r2, r2, #1024	@ 0x400
 8004e04:	4290      	cmp	r0, r2
 8004e06:	d062      	beq.n	8004ece <HAL_GPIO_Init+0x1a2>
 8004e08:	f502 6280 	add.w	r2, r2, #1024	@ 0x400
 8004e0c:	4290      	cmp	r0, r2
 8004e0e:	d060      	beq.n	8004ed2 <HAL_GPIO_Init+0x1a6>
 8004e10:	f502 6280 	add.w	r2, r2, #1024	@ 0x400
 8004e14:	4290      	cmp	r0, r2
 8004e16:	d05e      	beq.n	8004ed6 <HAL_GPIO_Init+0x1aa>
 8004e18:	f502 6280 	add.w	r2, r2, #1024	@ 0x400
 8004e1c:	4290      	cmp	r0, r2
 8004e1e:	bf14      	ite	ne
 8004e20:	2206      	movne	r2, #6
 8004e22:	2205      	moveq	r2, #5
 8004e24:	fa02 f20a 	lsl.w	r2, r2, sl
 8004e28:	ea42 020b 	orr.w	r2, r2, fp
 8004e2c:	60ba      	str	r2, [r7, #8]
 8004e2e:	689a      	ldr	r2, [r3, #8]
 8004e30:	f419 1f80 	tst.w	r9, #1048576	@ 0x100000
 8004e34:	bf14      	ite	ne
 8004e36:	432a      	orrne	r2, r5
 8004e38:	43aa      	biceq	r2, r5
 8004e3a:	609a      	str	r2, [r3, #8]
 8004e3c:	68da      	ldr	r2, [r3, #12]
 8004e3e:	f419 1f00 	tst.w	r9, #2097152	@ 0x200000
 8004e42:	bf14      	ite	ne
 8004e44:	432a      	orrne	r2, r5
 8004e46:	43aa      	biceq	r2, r5
 8004e48:	60da      	str	r2, [r3, #12]
 8004e4a:	685a      	ldr	r2, [r3, #4]
 8004e4c:	f419 3f00 	tst.w	r9, #131072	@ 0x20000
 8004e50:	bf14      	ite	ne
 8004e52:	432a      	orrne	r2, r5
 8004e54:	43aa      	biceq	r2, r5
 8004e56:	605a      	str	r2, [r3, #4]
 8004e58:	681a      	ldr	r2, [r3, #0]
 8004e5a:	f419 3f80 	tst.w	r9, #65536	@ 0x10000
 8004e5e:	bf14      	ite	ne
 8004e60:	432a      	orrne	r2, r5
 8004e62:	43aa      	biceq	r2, r5
 8004e64:	601a      	str	r2, [r3, #0]
 8004e66:	3601      	adds	r6, #1
 8004e68:	e76b      	b.n	8004d42 <HAL_GPIO_Init+0x16>
 8004e6a:	f8df 9084 	ldr.w	r9, [pc, #132]	@ 8004ef0 <HAL_GPIO_Init+0x1c4>
 8004e6e:	454a      	cmp	r2, r9
 8004e70:	d009      	beq.n	8004e86 <HAL_GPIO_Init+0x15a>
 8004e72:	d811      	bhi.n	8004e98 <HAL_GPIO_Init+0x16c>
 8004e74:	f5a9 1980 	sub.w	r9, r9, #1048576	@ 0x100000
 8004e78:	454a      	cmp	r2, r9
 8004e7a:	d004      	beq.n	8004e86 <HAL_GPIO_Init+0x15a>
 8004e7c:	4572      	cmp	r2, lr
 8004e7e:	d002      	beq.n	8004e86 <HAL_GPIO_Init+0x15a>
 8004e80:	4542      	cmp	r2, r8
 8004e82:	f47f af7f 	bne.w	8004d84 <HAL_GPIO_Init+0x58>
 8004e86:	688a      	ldr	r2, [r1, #8]
 8004e88:	b1da      	cbz	r2, 8004ec2 <HAL_GPIO_Init+0x196>
 8004e8a:	2a01      	cmp	r2, #1
 8004e8c:	f04f 0408 	mov.w	r4, #8
 8004e90:	bf0c      	ite	eq
 8004e92:	6107      	streq	r7, [r0, #16]
 8004e94:	6147      	strne	r7, [r0, #20]
 8004e96:	e775      	b.n	8004d84 <HAL_GPIO_Init+0x58>
 8004e98:	f8df 9058 	ldr.w	r9, [pc, #88]	@ 8004ef4 <HAL_GPIO_Init+0x1c8>
 8004e9c:	454a      	cmp	r2, r9
 8004e9e:	d0f2      	beq.n	8004e86 <HAL_GPIO_Init+0x15a>
 8004ea0:	f509 3980 	add.w	r9, r9, #65536	@ 0x10000
 8004ea4:	454a      	cmp	r2, r9
 8004ea6:	e7ec      	b.n	8004e82 <HAL_GPIO_Init+0x156>
 8004ea8:	68cc      	ldr	r4, [r1, #12]
 8004eaa:	e76b      	b.n	8004d84 <HAL_GPIO_Init+0x58>
 8004eac:	68cc      	ldr	r4, [r1, #12]
 8004eae:	3404      	adds	r4, #4
 8004eb0:	e768      	b.n	8004d84 <HAL_GPIO_Init+0x58>
 8004eb2:	68cc      	ldr	r4, [r1, #12]
 8004eb4:	3408      	adds	r4, #8
 8004eb6:	e765      	b.n	8004d84 <HAL_GPIO_Init+0x58>
 8004eb8:	68cc      	ldr	r4, [r1, #12]
 8004eba:	340c      	adds	r4, #12
 8004ebc:	e762      	b.n	8004d84 <HAL_GPIO_Init+0x58>
 8004ebe:	2400      	movs	r4, #0
 8004ec0:	e760      	b.n	8004d84 <HAL_GPIO_Init+0x58>
 8004ec2:	2404      	movs	r4, #4
 8004ec4:	e75e      	b.n	8004d84 <HAL_GPIO_Init+0x58>
 8004ec6:	2200      	movs	r2, #0
 8004ec8:	e7ac      	b.n	8004e24 <HAL_GPIO_Init+0xf8>
 8004eca:	2201      	movs	r2, #1
 8004ecc:	e7aa      	b.n	8004e24 <HAL_GPIO_Init+0xf8>
 8004ece:	2202      	movs	r2, #2
 8004ed0:	e7a8      	b.n	8004e24 <HAL_GPIO_Init+0xf8>
 8004ed2:	2203      	movs	r2, #3
 8004ed4:	e7a6      	b.n	8004e24 <HAL_GPIO_Init+0xf8>
 8004ed6:	2204      	movs	r2, #4
 8004ed8:	e7a4      	b.n	8004e24 <HAL_GPIO_Init+0xf8>
 8004eda:	bf00      	nop
 8004edc:	40021000 	.word	0x40021000
 8004ee0:	40010400 	.word	0x40010400
 8004ee4:	10210000 	.word	0x10210000
 8004ee8:	10110000 	.word	0x10110000
 8004eec:	40010800 	.word	0x40010800
 8004ef0:	10220000 	.word	0x10220000
 8004ef4:	10310000 	.word	0x10310000

08004ef8 <HAL_GPIO_ReadPin>:
 8004ef8:	6883      	ldr	r3, [r0, #8]
 8004efa:	4219      	tst	r1, r3
 8004efc:	bf14      	ite	ne
 8004efe:	2001      	movne	r0, #1
 8004f00:	2000      	moveq	r0, #0
 8004f02:	4770      	bx	lr

08004f04 <HAL_GPIO_WritePin>:
 8004f04:	b10a      	cbz	r2, 8004f0a <HAL_GPIO_WritePin+0x6>
 8004f06:	6101      	str	r1, [r0, #16]
 8004f08:	4770      	bx	lr
 8004f0a:	0409      	lsls	r1, r1, #16
 8004f0c:	e7fb      	b.n	8004f06 <HAL_GPIO_WritePin+0x2>

08004f0e <HAL_GPIO_TogglePin>:
 8004f0e:	68c3      	ldr	r3, [r0, #12]
 8004f10:	ea01 0203 	and.w	r2, r1, r3
 8004f14:	ea21 0103 	bic.w	r1, r1, r3
 8004f18:	ea41 4102 	orr.w	r1, r1, r2, lsl #16
 8004f1c:	6101      	str	r1, [r0, #16]
 8004f1e:	4770      	bx	lr

08004f20 <HAL_GPIO_EXTI_IRQHandler>:
 8004f20:	4a04      	ldr	r2, [pc, #16]	@ (8004f34 <HAL_GPIO_EXTI_IRQHandler+0x14>)
 8004f22:	b508      	push	{r3, lr}
 8004f24:	6951      	ldr	r1, [r2, #20]
 8004f26:	4201      	tst	r1, r0
 8004f28:	d002      	beq.n	8004f30 <HAL_GPIO_EXTI_IRQHandler+0x10>
 8004f2a:	6150      	str	r0, [r2, #20]
 8004f2c:	f7ff fd9c 	bl	8004a68 <HAL_GPIO_EXTI_Callback>
 8004f30:	bd08      	pop	{r3, pc}
 8004f32:	bf00      	nop
 8004f34:	40010400 	.word	0x40010400

08004f38 <HAL_RCC_OscConfig>:
 8004f38:	e92d 41f3 	stmdb	sp!, {r0, r1, r4, r5, r6, r7, r8, lr}
 8004f3c:	4605      	mov	r5, r0
 8004f3e:	b338      	cbz	r0, 8004f90 <HAL_RCC_OscConfig+0x58>
 8004f40:	6803      	ldr	r3, [r0, #0]
 8004f42:	07db      	lsls	r3, r3, #31
 8004f44:	d410      	bmi.n	8004f68 <HAL_RCC_OscConfig+0x30>
 8004f46:	682b      	ldr	r3, [r5, #0]
 8004f48:	079f      	lsls	r7, r3, #30
 8004f4a:	d45e      	bmi.n	800500a <HAL_RCC_OscConfig+0xd2>
 8004f4c:	682b      	ldr	r3, [r5, #0]
 8004f4e:	0719      	lsls	r1, r3, #28
 8004f50:	f100 8095 	bmi.w	800507e <HAL_RCC_OscConfig+0x146>
 8004f54:	682b      	ldr	r3, [r5, #0]
 8004f56:	075a      	lsls	r2, r3, #29
 8004f58:	f100 80c1 	bmi.w	80050de <HAL_RCC_OscConfig+0x1a6>
 8004f5c:	69eb      	ldr	r3, [r5, #28]
 8004f5e:	2b00      	cmp	r3, #0
 8004f60:	f040 812c 	bne.w	80051bc <HAL_RCC_OscConfig+0x284>
 8004f64:	2000      	movs	r0, #0
 8004f66:	e029      	b.n	8004fbc <HAL_RCC_OscConfig+0x84>
 8004f68:	4c90      	ldr	r4, [pc, #576]	@ (80051ac <HAL_RCC_OscConfig+0x274>)
 8004f6a:	6863      	ldr	r3, [r4, #4]
 8004f6c:	f003 030c 	and.w	r3, r3, #12
 8004f70:	2b04      	cmp	r3, #4
 8004f72:	d007      	beq.n	8004f84 <HAL_RCC_OscConfig+0x4c>
 8004f74:	6863      	ldr	r3, [r4, #4]
 8004f76:	f003 030c 	and.w	r3, r3, #12
 8004f7a:	2b08      	cmp	r3, #8
 8004f7c:	d10a      	bne.n	8004f94 <HAL_RCC_OscConfig+0x5c>
 8004f7e:	6863      	ldr	r3, [r4, #4]
 8004f80:	03de      	lsls	r6, r3, #15
 8004f82:	d507      	bpl.n	8004f94 <HAL_RCC_OscConfig+0x5c>
 8004f84:	6823      	ldr	r3, [r4, #0]
 8004f86:	039c      	lsls	r4, r3, #14
 8004f88:	d5dd      	bpl.n	8004f46 <HAL_RCC_OscConfig+0xe>
 8004f8a:	686b      	ldr	r3, [r5, #4]
 8004f8c:	2b00      	cmp	r3, #0
 8004f8e:	d1da      	bne.n	8004f46 <HAL_RCC_OscConfig+0xe>
 8004f90:	2001      	movs	r0, #1
 8004f92:	e013      	b.n	8004fbc <HAL_RCC_OscConfig+0x84>
 8004f94:	686b      	ldr	r3, [r5, #4]
 8004f96:	f5b3 3f80 	cmp.w	r3, #65536	@ 0x10000
 8004f9a:	d112      	bne.n	8004fc2 <HAL_RCC_OscConfig+0x8a>
 8004f9c:	6823      	ldr	r3, [r4, #0]
 8004f9e:	f443 3380 	orr.w	r3, r3, #65536	@ 0x10000
 8004fa2:	6023      	str	r3, [r4, #0]
 8004fa4:	f7ff fe46 	bl	8004c34 <HAL_GetTick>
 8004fa8:	4606      	mov	r6, r0
 8004faa:	6823      	ldr	r3, [r4, #0]
 8004fac:	0398      	lsls	r0, r3, #14
 8004fae:	d4ca      	bmi.n	8004f46 <HAL_RCC_OscConfig+0xe>
 8004fb0:	f7ff fe40 	bl	8004c34 <HAL_GetTick>
 8004fb4:	1b80      	subs	r0, r0, r6
 8004fb6:	2864      	cmp	r0, #100	@ 0x64
 8004fb8:	d9f7      	bls.n	8004faa <HAL_RCC_OscConfig+0x72>
 8004fba:	2003      	movs	r0, #3
 8004fbc:	b002      	add	sp, #8
 8004fbe:	e8bd 81f0 	ldmia.w	sp!, {r4, r5, r6, r7, r8, pc}
 8004fc2:	b99b      	cbnz	r3, 8004fec <HAL_RCC_OscConfig+0xb4>
 8004fc4:	6823      	ldr	r3, [r4, #0]
 8004fc6:	f423 3380 	bic.w	r3, r3, #65536	@ 0x10000
 8004fca:	6023      	str	r3, [r4, #0]
 8004fcc:	6823      	ldr	r3, [r4, #0]
 8004fce:	f423 2380 	bic.w	r3, r3, #262144	@ 0x40000
 8004fd2:	6023      	str	r3, [r4, #0]
 8004fd4:	f7ff fe2e 	bl	8004c34 <HAL_GetTick>
 8004fd8:	4606      	mov	r6, r0
 8004fda:	6823      	ldr	r3, [r4, #0]
 8004fdc:	0399      	lsls	r1, r3, #14
 8004fde:	d5b2      	bpl.n	8004f46 <HAL_RCC_OscConfig+0xe>
 8004fe0:	f7ff fe28 	bl	8004c34 <HAL_GetTick>
 8004fe4:	1b80      	subs	r0, r0, r6
 8004fe6:	2864      	cmp	r0, #100	@ 0x64
 8004fe8:	d9f7      	bls.n	8004fda <HAL_RCC_OscConfig+0xa2>
 8004fea:	e7e6      	b.n	8004fba <HAL_RCC_OscConfig+0x82>
 8004fec:	f5b3 2fa0 	cmp.w	r3, #327680	@ 0x50000
 8004ff0:	6823      	ldr	r3, [r4, #0]
 8004ff2:	d103      	bne.n	8004ffc <HAL_RCC_OscConfig+0xc4>
 8004ff4:	f443 2380 	orr.w	r3, r3, #262144	@ 0x40000
 8004ff8:	6023      	str	r3, [r4, #0]
 8004ffa:	e7cf      	b.n	8004f9c <HAL_RCC_OscConfig+0x64>
 8004ffc:	f423 3380 	bic.w	r3, r3, #65536	@ 0x10000
 8005000:	6023      	str	r3, [r4, #0]
 8005002:	6823      	ldr	r3, [r4, #0]
 8005004:	f423 2380 	bic.w	r3, r3, #262144	@ 0x40000
 8005008:	e7cb      	b.n	8004fa2 <HAL_RCC_OscConfig+0x6a>
 800500a:	4c68      	ldr	r4, [pc, #416]	@ (80051ac <HAL_RCC_OscConfig+0x274>)
 800500c:	6863      	ldr	r3, [r4, #4]
 800500e:	f013 0f0c 	tst.w	r3, #12
 8005012:	d007      	beq.n	8005024 <HAL_RCC_OscConfig+0xec>
 8005014:	6863      	ldr	r3, [r4, #4]
 8005016:	f003 030c 	and.w	r3, r3, #12
 800501a:	2b08      	cmp	r3, #8
 800501c:	d110      	bne.n	8005040 <HAL_RCC_OscConfig+0x108>
 800501e:	6863      	ldr	r3, [r4, #4]
 8005020:	03da      	lsls	r2, r3, #15
 8005022:	d40d      	bmi.n	8005040 <HAL_RCC_OscConfig+0x108>
 8005024:	6823      	ldr	r3, [r4, #0]
 8005026:	079b      	lsls	r3, r3, #30
 8005028:	d502      	bpl.n	8005030 <HAL_RCC_OscConfig+0xf8>
 800502a:	692b      	ldr	r3, [r5, #16]
 800502c:	2b01      	cmp	r3, #1
 800502e:	d1af      	bne.n	8004f90 <HAL_RCC_OscConfig+0x58>
 8005030:	6823      	ldr	r3, [r4, #0]
 8005032:	696a      	ldr	r2, [r5, #20]
 8005034:	f023 03f8 	bic.w	r3, r3, #248	@ 0xf8
 8005038:	ea43 03c2 	orr.w	r3, r3, r2, lsl #3
 800503c:	6023      	str	r3, [r4, #0]
 800503e:	e785      	b.n	8004f4c <HAL_RCC_OscConfig+0x14>
 8005040:	692a      	ldr	r2, [r5, #16]
 8005042:	4b5b      	ldr	r3, [pc, #364]	@ (80051b0 <HAL_RCC_OscConfig+0x278>)
 8005044:	b16a      	cbz	r2, 8005062 <HAL_RCC_OscConfig+0x12a>
 8005046:	2201      	movs	r2, #1
 8005048:	601a      	str	r2, [r3, #0]
 800504a:	f7ff fdf3 	bl	8004c34 <HAL_GetTick>
 800504e:	4606      	mov	r6, r0
 8005050:	6823      	ldr	r3, [r4, #0]
 8005052:	079f      	lsls	r7, r3, #30
 8005054:	d4ec      	bmi.n	8005030 <HAL_RCC_OscConfig+0xf8>
 8005056:	f7ff fded 	bl	8004c34 <HAL_GetTick>
 800505a:	1b80      	subs	r0, r0, r6
 800505c:	2802      	cmp	r0, #2
 800505e:	d9f7      	bls.n	8005050 <HAL_RCC_OscConfig+0x118>
 8005060:	e7ab      	b.n	8004fba <HAL_RCC_OscConfig+0x82>
 8005062:	601a      	str	r2, [r3, #0]
 8005064:	f7ff fde6 	bl	8004c34 <HAL_GetTick>
 8005068:	4606      	mov	r6, r0
 800506a:	6823      	ldr	r3, [r4, #0]
 800506c:	0798      	lsls	r0, r3, #30
 800506e:	f57f af6d 	bpl.w	8004f4c <HAL_RCC_OscConfig+0x14>
 8005072:	f7ff fddf 	bl	8004c34 <HAL_GetTick>
 8005076:	1b80      	subs	r0, r0, r6
 8005078:	2802      	cmp	r0, #2
 800507a:	d9f6      	bls.n	800506a <HAL_RCC_OscConfig+0x132>
 800507c:	e79d      	b.n	8004fba <HAL_RCC_OscConfig+0x82>
 800507e:	69aa      	ldr	r2, [r5, #24]
 8005080:	4e4a      	ldr	r6, [pc, #296]	@ (80051ac <HAL_RCC_OscConfig+0x274>)
 8005082:	4b4b      	ldr	r3, [pc, #300]	@ (80051b0 <HAL_RCC_OscConfig+0x278>)
 8005084:	b1e2      	cbz	r2, 80050c0 <HAL_RCC_OscConfig+0x188>
 8005086:	2201      	movs	r2, #1
 8005088:	f8c3 2480 	str.w	r2, [r3, #1152]	@ 0x480
 800508c:	f7ff fdd2 	bl	8004c34 <HAL_GetTick>
 8005090:	4604      	mov	r4, r0
 8005092:	6a73      	ldr	r3, [r6, #36]	@ 0x24
 8005094:	079b      	lsls	r3, r3, #30
 8005096:	d50d      	bpl.n	80050b4 <HAL_RCC_OscConfig+0x17c>
 8005098:	f44f 52fa 	mov.w	r2, #8000	@ 0x1f40
 800509c:	4b45      	ldr	r3, [pc, #276]	@ (80051b4 <HAL_RCC_OscConfig+0x27c>)
 800509e:	681b      	ldr	r3, [r3, #0]
 80050a0:	fbb3 f3f2 	udiv	r3, r3, r2
 80050a4:	9301      	str	r3, [sp, #4]
 80050a6:	bf00      	nop
 80050a8:	9b01      	ldr	r3, [sp, #4]
 80050aa:	1e5a      	subs	r2, r3, #1
 80050ac:	9201      	str	r2, [sp, #4]
 80050ae:	2b00      	cmp	r3, #0
 80050b0:	d1f9      	bne.n	80050a6 <HAL_RCC_OscConfig+0x16e>
 80050b2:	e74f      	b.n	8004f54 <HAL_RCC_OscConfig+0x1c>
 80050b4:	f7ff fdbe 	bl	8004c34 <HAL_GetTick>
 80050b8:	1b00      	subs	r0, r0, r4
 80050ba:	2802      	cmp	r0, #2
 80050bc:	d9e9      	bls.n	8005092 <HAL_RCC_OscConfig+0x15a>
 80050be:	e77c      	b.n	8004fba <HAL_RCC_OscConfig+0x82>
 80050c0:	f8c3 2480 	str.w	r2, [r3, #1152]	@ 0x480
 80050c4:	f7ff fdb6 	bl	8004c34 <HAL_GetTick>
 80050c8:	4604      	mov	r4, r0
 80050ca:	6a73      	ldr	r3, [r6, #36]	@ 0x24
 80050cc:	079f      	lsls	r7, r3, #30
 80050ce:	f57f af41 	bpl.w	8004f54 <HAL_RCC_OscConfig+0x1c>
 80050d2:	f7ff fdaf 	bl	8004c34 <HAL_GetTick>
 80050d6:	1b00      	subs	r0, r0, r4
 80050d8:	2802      	cmp	r0, #2
 80050da:	d9f6      	bls.n	80050ca <HAL_RCC_OscConfig+0x192>
 80050dc:	e76d      	b.n	8004fba <HAL_RCC_OscConfig+0x82>
 80050de:	4c33      	ldr	r4, [pc, #204]	@ (80051ac <HAL_RCC_OscConfig+0x274>)
 80050e0:	69e3      	ldr	r3, [r4, #28]
 80050e2:	00d8      	lsls	r0, r3, #3
 80050e4:	d424      	bmi.n	8005130 <HAL_RCC_OscConfig+0x1f8>
 80050e6:	2701      	movs	r7, #1
 80050e8:	69e3      	ldr	r3, [r4, #28]
 80050ea:	f043 5380 	orr.w	r3, r3, #268435456	@ 0x10000000
 80050ee:	61e3      	str	r3, [r4, #28]
 80050f0:	69e3      	ldr	r3, [r4, #28]
 80050f2:	f003 5380 	and.w	r3, r3, #268435456	@ 0x10000000
 80050f6:	9300      	str	r3, [sp, #0]
 80050f8:	9b00      	ldr	r3, [sp, #0]
 80050fa:	4e2f      	ldr	r6, [pc, #188]	@ (80051b8 <HAL_RCC_OscConfig+0x280>)
 80050fc:	6833      	ldr	r3, [r6, #0]
 80050fe:	05d9      	lsls	r1, r3, #23
 8005100:	d518      	bpl.n	8005134 <HAL_RCC_OscConfig+0x1fc>
 8005102:	68eb      	ldr	r3, [r5, #12]
 8005104:	2b01      	cmp	r3, #1
 8005106:	d126      	bne.n	8005156 <HAL_RCC_OscConfig+0x21e>
 8005108:	6a23      	ldr	r3, [r4, #32]
 800510a:	f043 0301 	orr.w	r3, r3, #1
 800510e:	6223      	str	r3, [r4, #32]
 8005110:	f7ff fd90 	bl	8004c34 <HAL_GetTick>
 8005114:	f241 3888 	movw	r8, #5000	@ 0x1388
 8005118:	4606      	mov	r6, r0
 800511a:	6a23      	ldr	r3, [r4, #32]
 800511c:	079b      	lsls	r3, r3, #30
 800511e:	d53f      	bpl.n	80051a0 <HAL_RCC_OscConfig+0x268>
 8005120:	2f00      	cmp	r7, #0
 8005122:	f43f af1b 	beq.w	8004f5c <HAL_RCC_OscConfig+0x24>
 8005126:	69e3      	ldr	r3, [r4, #28]
 8005128:	f023 5380 	bic.w	r3, r3, #268435456	@ 0x10000000
 800512c:	61e3      	str	r3, [r4, #28]
 800512e:	e715      	b.n	8004f5c <HAL_RCC_OscConfig+0x24>
 8005130:	2700      	movs	r7, #0
 8005132:	e7e2      	b.n	80050fa <HAL_RCC_OscConfig+0x1c2>
 8005134:	6833      	ldr	r3, [r6, #0]
 8005136:	f443 7380 	orr.w	r3, r3, #256	@ 0x100
 800513a:	6033      	str	r3, [r6, #0]
 800513c:	f7ff fd7a 	bl	8004c34 <HAL_GetTick>
 8005140:	4680      	mov	r8, r0
 8005142:	6833      	ldr	r3, [r6, #0]
 8005144:	05da      	lsls	r2, r3, #23
 8005146:	d4dc      	bmi.n	8005102 <HAL_RCC_OscConfig+0x1ca>
 8005148:	f7ff fd74 	bl	8004c34 <HAL_GetTick>
 800514c:	eba0 0008 	sub.w	r0, r0, r8
 8005150:	2864      	cmp	r0, #100	@ 0x64
 8005152:	d9f6      	bls.n	8005142 <HAL_RCC_OscConfig+0x20a>
 8005154:	e731      	b.n	8004fba <HAL_RCC_OscConfig+0x82>
 8005156:	b9ab      	cbnz	r3, 8005184 <HAL_RCC_OscConfig+0x24c>
 8005158:	6a23      	ldr	r3, [r4, #32]
 800515a:	f241 3888 	movw	r8, #5000	@ 0x1388
 800515e:	f023 0301 	bic.w	r3, r3, #1
 8005162:	6223      	str	r3, [r4, #32]
 8005164:	6a23      	ldr	r3, [r4, #32]
 8005166:	f023 0304 	bic.w	r3, r3, #4
 800516a:	6223      	str	r3, [r4, #32]
 800516c:	f7ff fd62 	bl	8004c34 <HAL_GetTick>
 8005170:	4606      	mov	r6, r0
 8005172:	6a23      	ldr	r3, [r4, #32]
 8005174:	0798      	lsls	r0, r3, #30
 8005176:	d5d3      	bpl.n	8005120 <HAL_RCC_OscConfig+0x1e8>
 8005178:	f7ff fd5c 	bl	8004c34 <HAL_GetTick>
 800517c:	1b80      	subs	r0, r0, r6
 800517e:	4540      	cmp	r0, r8
 8005180:	d9f7      	bls.n	8005172 <HAL_RCC_OscConfig+0x23a>
 8005182:	e71a      	b.n	8004fba <HAL_RCC_OscConfig+0x82>
 8005184:	2b05      	cmp	r3, #5
 8005186:	6a23      	ldr	r3, [r4, #32]
 8005188:	d103      	bne.n	8005192 <HAL_RCC_OscConfig+0x25a>
 800518a:	f043 0304 	orr.w	r3, r3, #4
 800518e:	6223      	str	r3, [r4, #32]
 8005190:	e7ba      	b.n	8005108 <HAL_RCC_OscConfig+0x1d0>
 8005192:	f023 0301 	bic.w	r3, r3, #1
 8005196:	6223      	str	r3, [r4, #32]
 8005198:	6a23      	ldr	r3, [r4, #32]
 800519a:	f023 0304 	bic.w	r3, r3, #4
 800519e:	e7b6      	b.n	800510e <HAL_RCC_OscConfig+0x1d6>
 80051a0:	f7ff fd48 	bl	8004c34 <HAL_GetTick>
 80051a4:	1b80      	subs	r0, r0, r6
 80051a6:	4540      	cmp	r0, r8
 80051a8:	d9b7      	bls.n	800511a <HAL_RCC_OscConfig+0x1e2>
 80051aa:	e706      	b.n	8004fba <HAL_RCC_OscConfig+0x82>
 80051ac:	40021000 	.word	0x40021000
 80051b0:	42420000 	.word	0x42420000
 80051b4:	20000004 	.word	0x20000004
 80051b8:	40007000 	.word	0x40007000
 80051bc:	4c2a      	ldr	r4, [pc, #168]	@ (8005268 <HAL_RCC_OscConfig+0x330>)
 80051be:	6862      	ldr	r2, [r4, #4]
 80051c0:	f002 020c 	and.w	r2, r2, #12
 80051c4:	2a08      	cmp	r2, #8
 80051c6:	d03e      	beq.n	8005246 <HAL_RCC_OscConfig+0x30e>
 80051c8:	2200      	movs	r2, #0
 80051ca:	2b02      	cmp	r3, #2
 80051cc:	4b27      	ldr	r3, [pc, #156]	@ (800526c <HAL_RCC_OscConfig+0x334>)
 80051ce:	661a      	str	r2, [r3, #96]	@ 0x60
 80051d0:	d12c      	bne.n	800522c <HAL_RCC_OscConfig+0x2f4>
 80051d2:	f7ff fd2f 	bl	8004c34 <HAL_GetTick>
 80051d6:	4606      	mov	r6, r0
 80051d8:	6823      	ldr	r3, [r4, #0]
 80051da:	0199      	lsls	r1, r3, #6
 80051dc:	d420      	bmi.n	8005220 <HAL_RCC_OscConfig+0x2e8>
 80051de:	6a2b      	ldr	r3, [r5, #32]
 80051e0:	f5b3 3f80 	cmp.w	r3, #65536	@ 0x10000
 80051e4:	d105      	bne.n	80051f2 <HAL_RCC_OscConfig+0x2ba>
 80051e6:	6862      	ldr	r2, [r4, #4]
 80051e8:	68a9      	ldr	r1, [r5, #8]
 80051ea:	f422 3200 	bic.w	r2, r2, #131072	@ 0x20000
 80051ee:	430a      	orrs	r2, r1
 80051f0:	6062      	str	r2, [r4, #4]
 80051f2:	6a69      	ldr	r1, [r5, #36]	@ 0x24
 80051f4:	6862      	ldr	r2, [r4, #4]
 80051f6:	430b      	orrs	r3, r1
 80051f8:	f422 1274 	bic.w	r2, r2, #3997696	@ 0x3d0000
 80051fc:	4313      	orrs	r3, r2
 80051fe:	2201      	movs	r2, #1
 8005200:	6063      	str	r3, [r4, #4]
 8005202:	4b1a      	ldr	r3, [pc, #104]	@ (800526c <HAL_RCC_OscConfig+0x334>)
 8005204:	661a      	str	r2, [r3, #96]	@ 0x60
 8005206:	f7ff fd15 	bl	8004c34 <HAL_GetTick>
 800520a:	4605      	mov	r5, r0
 800520c:	6823      	ldr	r3, [r4, #0]
 800520e:	019a      	lsls	r2, r3, #6
 8005210:	f53f aea8 	bmi.w	8004f64 <HAL_RCC_OscConfig+0x2c>
 8005214:	f7ff fd0e 	bl	8004c34 <HAL_GetTick>
 8005218:	1b40      	subs	r0, r0, r5
 800521a:	2802      	cmp	r0, #2
 800521c:	d9f6      	bls.n	800520c <HAL_RCC_OscConfig+0x2d4>
 800521e:	e6cc      	b.n	8004fba <HAL_RCC_OscConfig+0x82>
 8005220:	f7ff fd08 	bl	8004c34 <HAL_GetTick>
 8005224:	1b80      	subs	r0, r0, r6
 8005226:	2802      	cmp	r0, #2
 8005228:	d9d6      	bls.n	80051d8 <HAL_RCC_OscConfig+0x2a0>
 800522a:	e6c6      	b.n	8004fba <HAL_RCC_OscConfig+0x82>
 800522c:	f7ff fd02 	bl	8004c34 <HAL_GetTick>
 8005230:	4605      	mov	r5, r0
 8005232:	6823      	ldr	r3, [r4, #0]
 8005234:	019b      	lsls	r3, r3, #6
 8005236:	f57f ae95 	bpl.w	8004f64 <HAL_RCC_OscConfig+0x2c>
 800523a:	f7ff fcfb 	bl	8004c34 <HAL_GetTick>
 800523e:	1b40      	subs	r0, r0, r5
 8005240:	2802      	cmp	r0, #2
 8005242:	d9f6      	bls.n	8005232 <HAL_RCC_OscConfig+0x2fa>
 8005244:	e6b9      	b.n	8004fba <HAL_RCC_OscConfig+0x82>
 8005246:	2b01      	cmp	r3, #1
 8005248:	f43f aea2 	beq.w	8004f90 <HAL_RCC_OscConfig+0x58>
 800524c:	6860      	ldr	r0, [r4, #4]
 800524e:	6a2b      	ldr	r3, [r5, #32]
 8005250:	f400 3280 	and.w	r2, r0, #65536	@ 0x10000
 8005254:	429a      	cmp	r2, r3
 8005256:	f47f ae9b 	bne.w	8004f90 <HAL_RCC_OscConfig+0x58>
 800525a:	6a6b      	ldr	r3, [r5, #36]	@ 0x24
 800525c:	f400 1070 	and.w	r0, r0, #3932160	@ 0x3c0000
 8005260:	1ac0      	subs	r0, r0, r3
 8005262:	bf18      	it	ne
 8005264:	2001      	movne	r0, #1
 8005266:	e6a9      	b.n	8004fbc <HAL_RCC_OscConfig+0x84>
 8005268:	40021000 	.word	0x40021000
 800526c:	42420000 	.word	0x42420000

08005270 <HAL_RCC_GetSysClockFreq>:
 8005270:	4a0d      	ldr	r2, [pc, #52]	@ (80052a8 <HAL_RCC_GetSysClockFreq+0x38>)
 8005272:	6853      	ldr	r3, [r2, #4]
 8005274:	f003 010c 	and.w	r1, r3, #12
 8005278:	2908      	cmp	r1, #8
 800527a:	d112      	bne.n	80052a2 <HAL_RCC_GetSysClockFreq+0x32>
 800527c:	480b      	ldr	r0, [pc, #44]	@ (80052ac <HAL_RCC_GetSysClockFreq+0x3c>)
 800527e:	f3c3 4183 	ubfx	r1, r3, #18, #4
 8005282:	03db      	lsls	r3, r3, #15
 8005284:	5c40      	ldrb	r0, [r0, r1]
 8005286:	d509      	bpl.n	800529c <HAL_RCC_GetSysClockFreq+0x2c>
 8005288:	6853      	ldr	r3, [r2, #4]
 800528a:	4a09      	ldr	r2, [pc, #36]	@ (80052b0 <HAL_RCC_GetSysClockFreq+0x40>)
 800528c:	f3c3 4340 	ubfx	r3, r3, #17, #1
 8005290:	4350      	muls	r0, r2
 8005292:	4a08      	ldr	r2, [pc, #32]	@ (80052b4 <HAL_RCC_GetSysClockFreq+0x44>)
 8005294:	5cd3      	ldrb	r3, [r2, r3]
 8005296:	fbb0 f0f3 	udiv	r0, r0, r3
 800529a:	4770      	bx	lr
 800529c:	4b06      	ldr	r3, [pc, #24]	@ (80052b8 <HAL_RCC_GetSysClockFreq+0x48>)
 800529e:	4358      	muls	r0, r3
 80052a0:	4770      	bx	lr
 80052a2:	4803      	ldr	r0, [pc, #12]	@ (80052b0 <HAL_RCC_GetSysClockFreq+0x40>)
 80052a4:	4770      	bx	lr
 80052a6:	bf00      	nop
 80052a8:	40021000 	.word	0x40021000
 80052ac:	0800842c 	.word	0x0800842c
 80052b0:	007a1200 	.word	0x007a1200
 80052b4:	0800842a 	.word	0x0800842a
 80052b8:	003d0900 	.word	0x003d0900

080052bc <HAL_RCC_ClockConfig>:
 80052bc:	e92d 41f0 	stmdb	sp!, {r4, r5, r6, r7, r8, lr}
 80052c0:	460d      	mov	r5, r1
 80052c2:	4604      	mov	r4, r0
 80052c4:	b910      	cbnz	r0, 80052cc <HAL_RCC_ClockConfig+0x10>
 80052c6:	2001      	movs	r0, #1
 80052c8:	e8bd 81f0 	ldmia.w	sp!, {r4, r5, r6, r7, r8, pc}
 80052cc:	4a44      	ldr	r2, [pc, #272]	@ (80053e0 <HAL_RCC_ClockConfig+0x124>)
 80052ce:	6813      	ldr	r3, [r2, #0]
 80052d0:	f003 0307 	and.w	r3, r3, #7
 80052d4:	428b      	cmp	r3, r1
 80052d6:	d328      	bcc.n	800532a <HAL_RCC_ClockConfig+0x6e>
 80052d8:	6821      	ldr	r1, [r4, #0]
 80052da:	078e      	lsls	r6, r1, #30
 80052dc:	d430      	bmi.n	8005340 <HAL_RCC_ClockConfig+0x84>
 80052de:	07ca      	lsls	r2, r1, #31
 80052e0:	d443      	bmi.n	800536a <HAL_RCC_ClockConfig+0xae>
 80052e2:	4a3f      	ldr	r2, [pc, #252]	@ (80053e0 <HAL_RCC_ClockConfig+0x124>)
 80052e4:	6813      	ldr	r3, [r2, #0]
 80052e6:	f003 0307 	and.w	r3, r3, #7
 80052ea:	42ab      	cmp	r3, r5
 80052ec:	d865      	bhi.n	80053ba <HAL_RCC_ClockConfig+0xfe>
 80052ee:	6822      	ldr	r2, [r4, #0]
 80052f0:	4d3c      	ldr	r5, [pc, #240]	@ (80053e4 <HAL_RCC_ClockConfig+0x128>)
 80052f2:	f012 0f04 	tst.w	r2, #4
 80052f6:	d16c      	bne.n	80053d2 <HAL_RCC_ClockConfig+0x116>
 80052f8:	0713      	lsls	r3, r2, #28
 80052fa:	d506      	bpl.n	800530a <HAL_RCC_ClockConfig+0x4e>
 80052fc:	686b      	ldr	r3, [r5, #4]
 80052fe:	6922      	ldr	r2, [r4, #16]
 8005300:	f423 5360 	bic.w	r3, r3, #14336	@ 0x3800
 8005304:	ea43 03c2 	orr.w	r3, r3, r2, lsl #3
 8005308:	606b      	str	r3, [r5, #4]
 800530a:	f7ff ffb1 	bl	8005270 <HAL_RCC_GetSysClockFreq>
 800530e:	686b      	ldr	r3, [r5, #4]
 8005310:	4a35      	ldr	r2, [pc, #212]	@ (80053e8 <HAL_RCC_ClockConfig+0x12c>)
 8005312:	f3c3 1303 	ubfx	r3, r3, #4, #4
 8005316:	5cd3      	ldrb	r3, [r2, r3]
 8005318:	40d8      	lsrs	r0, r3
 800531a:	4b34      	ldr	r3, [pc, #208]	@ (80053ec <HAL_RCC_ClockConfig+0x130>)
 800531c:	6018      	str	r0, [r3, #0]
 800531e:	4b34      	ldr	r3, [pc, #208]	@ (80053f0 <HAL_RCC_ClockConfig+0x134>)
 8005320:	6818      	ldr	r0, [r3, #0]
 8005322:	f7ff fc45 	bl	8004bb0 <HAL_InitTick>
 8005326:	2000      	movs	r0, #0
 8005328:	e7ce      	b.n	80052c8 <HAL_RCC_ClockConfig+0xc>
 800532a:	6813      	ldr	r3, [r2, #0]
 800532c:	f023 0307 	bic.w	r3, r3, #7
 8005330:	430b      	orrs	r3, r1
 8005332:	6013      	str	r3, [r2, #0]
 8005334:	6813      	ldr	r3, [r2, #0]
 8005336:	f003 0307 	and.w	r3, r3, #7
 800533a:	428b      	cmp	r3, r1
 800533c:	d1c3      	bne.n	80052c6 <HAL_RCC_ClockConfig+0xa>
 800533e:	e7cb      	b.n	80052d8 <HAL_RCC_ClockConfig+0x1c>
 8005340:	4b28      	ldr	r3, [pc, #160]	@ (80053e4 <HAL_RCC_ClockConfig+0x128>)
 8005342:	f011 0f04 	tst.w	r1, #4
 8005346:	bf1e      	ittt	ne
 8005348:	685a      	ldrne	r2, [r3, #4]
 800534a:	f442 62e0 	orrne.w	r2, r2, #1792	@ 0x700
 800534e:	605a      	strne	r2, [r3, #4]
 8005350:	0708      	lsls	r0, r1, #28
 8005352:	bf42      	ittt	mi
 8005354:	685a      	ldrmi	r2, [r3, #4]
 8005356:	f442 5260 	orrmi.w	r2, r2, #14336	@ 0x3800
 800535a:	605a      	strmi	r2, [r3, #4]
 800535c:	685a      	ldr	r2, [r3, #4]
 800535e:	68a0      	ldr	r0, [r4, #8]
 8005360:	f022 02f0 	bic.w	r2, r2, #240	@ 0xf0
 8005364:	4302      	orrs	r2, r0
 8005366:	605a      	str	r2, [r3, #4]
 8005368:	e7b9      	b.n	80052de <HAL_RCC_ClockConfig+0x22>
 800536a:	6862      	ldr	r2, [r4, #4]
 800536c:	4e1d      	ldr	r6, [pc, #116]	@ (80053e4 <HAL_RCC_ClockConfig+0x128>)
 800536e:	2a01      	cmp	r2, #1
 8005370:	6833      	ldr	r3, [r6, #0]
 8005372:	d11a      	bne.n	80053aa <HAL_RCC_ClockConfig+0xee>
 8005374:	f413 3f00 	tst.w	r3, #131072	@ 0x20000
 8005378:	d0a5      	beq.n	80052c6 <HAL_RCC_ClockConfig+0xa>
 800537a:	6873      	ldr	r3, [r6, #4]
 800537c:	f241 3888 	movw	r8, #5000	@ 0x1388
 8005380:	f023 0303 	bic.w	r3, r3, #3
 8005384:	4313      	orrs	r3, r2
 8005386:	6073      	str	r3, [r6, #4]
 8005388:	f7ff fc54 	bl	8004c34 <HAL_GetTick>
 800538c:	4607      	mov	r7, r0
 800538e:	6873      	ldr	r3, [r6, #4]
 8005390:	6862      	ldr	r2, [r4, #4]
 8005392:	f003 030c 	and.w	r3, r3, #12
 8005396:	ebb3 0f82 	cmp.w	r3, r2, lsl #2
 800539a:	d0a2      	beq.n	80052e2 <HAL_RCC_ClockConfig+0x26>
 800539c:	f7ff fc4a 	bl	8004c34 <HAL_GetTick>
 80053a0:	1bc0      	subs	r0, r0, r7
 80053a2:	4540      	cmp	r0, r8
 80053a4:	d9f3      	bls.n	800538e <HAL_RCC_ClockConfig+0xd2>
 80053a6:	2003      	movs	r0, #3
 80053a8:	e78e      	b.n	80052c8 <HAL_RCC_ClockConfig+0xc>
 80053aa:	2a02      	cmp	r2, #2
 80053ac:	d102      	bne.n	80053b4 <HAL_RCC_ClockConfig+0xf8>
 80053ae:	f013 7f00 	tst.w	r3, #33554432	@ 0x2000000
 80053b2:	e7e1      	b.n	8005378 <HAL_RCC_ClockConfig+0xbc>
 80053b4:	f013 0f02 	tst.w	r3, #2
 80053b8:	e7de      	b.n	8005378 <HAL_RCC_ClockConfig+0xbc>
 80053ba:	6813      	ldr	r3, [r2, #0]
 80053bc:	f023 0307 	bic.w	r3, r3, #7
 80053c0:	432b      	orrs	r3, r5
 80053c2:	6013      	str	r3, [r2, #0]
 80053c4:	6813      	ldr	r3, [r2, #0]
 80053c6:	f003 0307 	and.w	r3, r3, #7
 80053ca:	42ab      	cmp	r3, r5
 80053cc:	f47f af7b 	bne.w	80052c6 <HAL_RCC_ClockConfig+0xa>
 80053d0:	e78d      	b.n	80052ee <HAL_RCC_ClockConfig+0x32>
 80053d2:	686b      	ldr	r3, [r5, #4]
 80053d4:	68e1      	ldr	r1, [r4, #12]
 80053d6:	f423 63e0 	bic.w	r3, r3, #1792	@ 0x700
 80053da:	430b      	orrs	r3, r1
 80053dc:	606b      	str	r3, [r5, #4]
 80053de:	e78b      	b.n	80052f8 <HAL_RCC_ClockConfig+0x3c>
 80053e0:	40022000 	.word	0x40022000
 80053e4:	40021000 	.word	0x40021000
 80053e8:	0800841a 	.word	0x0800841a
 80053ec:	20000004 	.word	0x20000004
 80053f0:	2000000c 	.word	0x2000000c

080053f4 <memset>:
 80053f4:	4603      	mov	r3, r0
 80053f6:	4402      	add	r2, r0
 80053f8:	4293      	cmp	r3, r2
 80053fa:	d100      	bne.n	80053fe <memset+0xa>
 80053fc:	4770      	bx	lr
 80053fe:	f803 1b01 	strb.w	r1, [r3], #1
 8005402:	e7f9      	b.n	80053f8 <memset+0x4>

08005404 <__libc_init_array>:
 8005404:	b570      	push	{r4, r5, r6, lr}
 8005406:	2600      	movs	r6, #0
 8005408:	4d0c      	ldr	r5, [pc, #48]	@ (800543c <__libc_init_array+0x38>)
 800540a:	4c0d      	ldr	r4, [pc, #52]	@ (8005440 <__libc_init_array+0x3c>)
 800540c:	1b64      	subs	r4, r4, r5
 800540e:	10a4      	asrs	r4, r4, #2
 8005410:	42a6      	cmp	r6, r4
 8005412:	d109      	bne.n	8005428 <__libc_init_array+0x24>
 8005414:	f000 f81a 	bl	800544c <_init>
 8005418:	2600      	movs	r6, #0
 800541a:	4d0a      	ldr	r5, [pc, #40]	@ (8005444 <__libc_init_array+0x40>)
 800541c:	4c0a      	ldr	r4, [pc, #40]	@ (8005448 <__libc_init_array+0x44>)
 800541e:	1b64      	subs	r4, r4, r5
 8005420:	10a4      	asrs	r4, r4, #2
 8005422:	42a6      	cmp	r6, r4
 8005424:	d105      	bne.n	8005432 <__libc_init_array+0x2e>
 8005426:	bd70      	pop	{r4, r5, r6, pc}
 8005428:	f855 3b04 	ldr.w	r3, [r5], #4
 800542c:	4798      	blx	r3
 800542e:	3601      	adds	r6, #1
 8005430:	e7ee      	b.n	8005410 <__libc_init_array+0xc>
 8005432:	f855 3b04 	ldr.w	r3, [r5], #4
 8005436:	4798      	blx	r3
 8005438:	3601      	adds	r6, #1
 800543a:	e7f2      	b.n	8005422 <__libc_init_array+0x1e>
 800543c:	0800843c 	.word	0x0800843c
 8005440:	0800843c 	.word	0x0800843c
 8005444:	0800843c 	.word	0x0800843c
 8005448:	08008440 	.word	0x08008440

0800544c <_init>:
 800544c:	b5f8      	push	{r3, r4, r5, r6, r7, lr}
 800544e:	bf00      	nop
 8005450:	bcf8      	pop	{r3, r4, r5, r6, r7}
 8005452:	bc08      	pop	{r3}
 8005454:	469e      	mov	lr, r3
 8005456:	4770      	bx	lr

08005458 <_fini>:
 8005458:	b5f8      	push	{r3, r4, r5, r6, r7, lr}
 800545a:	bf00      	nop
 800545c:	bcf8      	pop	{r3, r4, r5, r6, r7}
 800545e:	bc08      	pop	{r3}
 8005460:	469e      	mov	lr, r3
 8005462:	4770      	bx	lr
